(ipyCatcherModel
BaseStationInformationList
p0
(dp1
S'_base_station_list'
p2
(lp3
(ipyCatcherModel
BaseStationInformation
p4
(dp5
S'system_info_t2ter'
p6
(lp7
sS'evaluation_report'
p8
(dp9
S'Decision founded on'
p10
S'None'
p11
ssS'encryption'
p12
S'Not checked.'
p13
sS'rules_report'
p14
(dp15
S'Country Provider Mapping'
p16
S'Ok'
p17
sS'Unique CellID'
p18
g17
sS'LAC Median Deviation'
p19
g17
sS'LAC Mapping'
p20
g17
sS'Neighbourhood Structure'
p21
g17
sS'ARFCN Mapping'
p22
g17
sS'Pure Neighbourhoods'
p23
g17
sS'Provider Check'
p24
g17
ssS'cell'
p25
I8434
sS'neighbours'
p26
(lp27
I20
aI29
aI85
aI94
aI102
asS'rxlev'
p28
I-50
sS'provider'
p29
S'T-Mobile'
p30
sS'latitude'
p31
I0
sS'db_status'
p32
S'Not looked up'
p33
sS'evaluation'
p34
g17
sS'arfcn'
p35
I90
sS'evaluation_by'
p36
S'Conservative Evaluator'
p37
sS'discovery_time'
p38
S'17:53:26'
p39
sS'lac'
p40
I21014
sS'db_provider'
p41
g11
sS'bsic'
p42
S'7,0'
p43
sS'system_info_t2bis'
p44
(lp45
sS'system_info_t4'
p46
(lp47
S''
p48
aS'31'
p49
aS'06'
p50
aS'1c'
p51
aS'62'
p52
aS'f2'
p53
aS'10'
p54
aS'52'
p55
aS'16'
p56
aS'65'
p57
aS'04'
p58
aS'a5'
p59
aS'00'
p60
aS'00'
p61
aS'1d'
p62
aS'2b'
p63
aS'2b'
p64
aS'2b'
p65
aS'2b'
p66
aS'2b'
p67
aS'2b'
p68
aS'2b'
p69
aS'2b'
p70
aS'2b'
p71
asS'system_info_t3'
p72
(lp73
g48
aS'49'
p74
aS'06'
p75
aS'1b'
p76
aS'20'
p77
aS'f2'
p78
aS'62'
p79
aS'f2'
p80
aS'10'
p81
aS'52'
p82
aS'16'
p83
aS'd8'
p84
aS'04'
p85
aS'1e'
p86
aS'58'
p87
aS'65'
p88
aS'04'
p89
aS'a5'
p90
aS'00'
p91
aS'00'
p92
aS'3f'
p93
aS'b3'
p94
aS'2b'
p95
aS'2b'
p96
asS'system_info_t2'
p97
(lp98
g48
aS'59'
p99
aS'06'
p100
aS'1a'
p101
aS'00'
p102
aS'00'
p103
aS'00'
p104
aS'20'
p105
aS'22'
p106
aS'10'
p107
aS'00'
p108
aS'00'
p109
aS'00'
p110
aS'00'
p111
aS'00'
p112
aS'00'
p113
aS'10'
p114
aS'08'
p115
aS'00'
p116
aS'00'
p117
aS'88'
p118
aS'a5'
p119
aS'00'
p120
aS'00'
p121
asS'system_info_t1'
p122
(lp123
g48
aS'55'
p124
aS'06'
p125
aS'19'
p126
aS'00'
p127
aS'00'
p128
aS'00'
p129
aS'00'
p130
aS'0a'
p131
aS'00'
p132
aS'00'
p133
aS'00'
p134
aS'00'
p135
aS'00'
p136
aS'00'
p137
aS'20'
p138
aS'00'
p139
aS'00'
p140
aS'00'
p141
aS'00'
p142
aS'a5'
p143
aS'00'
p144
aS'00'
p145
aS'2b'
p146
asS'country'
p147
S'Germany'
p148
sS'longitude'
p149
I0
sS'found'
p150
I01
sS'times_scanned'
p151
I1
sba(ipyCatcherModel
BaseStationInformation
p152
(dp153
g6
(lp154
sg8
(dp155
g10
g11
ssg12
g13
sg14
(dp156
g16
g17
sg18
g17
sg19
g17
sg20
g17
sg21
g17
sg22
g17
sg23
g17
sg24
g17
ssg25
I14030
sg26
(lp157
I3
aI8
aI58
aI64
aI70
aI105
aI118
asg28
I-47
sg29
S'Vodafone'
p158
sg31
I0
sg32
g33
sg34
g17
sg35
I52
sg36
g37
sg38
S'17:59:25'
p159
sg40
I793
sg41
g11
sg42
S'3,7'
p160
sg44
(lp161
sg46
(lp162
g48
aS'31'
p163
aS'06'
p164
aS'1c'
p165
aS'62'
p166
aS'f2'
p167
aS'20'
p168
aS'03'
p169
aS'19'
p170
aS'65'
p171
aS'04'
p172
aS'b9'
p173
aS'00'
p174
aS'00'
p175
aS'80'
p176
aS'1f'
p177
aS'4b'
p178
aS'2b'
p179
aS'2b'
p180
aS'2b'
p181
aS'2b'
p182
aS'2b'
p183
aS'2b'
p184
aS'2b'
p185
asg72
(lp186
g48
aS'49'
p187
aS'06'
p188
aS'1b'
p189
aS'36'
p190
aS'ce'
p191
aS'62'
p192
aS'f2'
p193
aS'20'
p194
aS'03'
p195
aS'19'
p196
aS'c8'
p197
aS'04'
p198
aS'0a'
p199
aS'15'
p200
aS'65'
p201
aS'04'
p202
aS'b9'
p203
aS'00'
p204
aS'00'
p205
aS'80'
p206
aS'1f'
p207
aS'01'
p208
aS'1b'
p209
asg97
(lp210
g48
aS'59'
p211
aS'06'
p212
aS'1a'
p213
aS'00'
p214
aS'20'
p215
aS'01'
p216
aS'00'
p217
aS'00'
p218
aS'00'
p219
aS'00'
p220
aS'20'
p221
aS'82'
p222
aS'00'
p223
aS'00'
p224
aS'00'
p225
aS'00'
p226
aS'00'
p227
aS'00'
p228
aS'84'
p229
aS'88'
p230
aS'b9'
p231
aS'00'
p232
aS'00'
p233
asg122
(lp234
g48
aS'55'
p235
aS'06'
p236
aS'19'
p237
aS'01'
p238
aS'01'
p239
aS'10'
p240
aS'00'
p241
aS'00'
p242
aS'00'
p243
aS'40'
p244
aS'00'
p245
aS'20'
p246
aS'80'
p247
aS'00'
p248
aS'00'
p249
aS'00'
p250
aS'00'
p251
aS'00'
p252
aS'00'
p253
aS'b9'
p254
aS'00'
p255
aS'00'
p256
aS'83'
p257
asg147
S'Germany'
p258
sg149
I0
sg150
I01
sg151
I2
sba(ipyCatcherModel
BaseStationInformation
p259
(dp260
g6
(lp261
sg8
(dp262
g10
g11
ssg12
g13
sg14
(dp263
g16
g17
sg18
g17
sg19
g17
sg20
g17
sg21
g17
sg22
g17
sg23
g17
sg24
g17
ssg25
I29516
sg26
(lp264
I20
aI23
aI29
aI44
aI85
aI90
aI96
aI102
asg28
I-47
sg29
S'T-Mobile'
p265
sg31
I0
sg32
g33
sg34
g17
sg35
I94
sg36
g37
sg38
S'17:53:32'
p266
sg40
I21014
sg41
g11
sg42
S'7,2'
p267
sg44
(lp268
sg46
(lp269
g48
aS'31'
p270
aS'06'
p271
aS'1c'
p272
aS'62'
p273
aS'f2'
p274
aS'10'
p275
aS'52'
p276
aS'16'
p277
aS'65'
p278
aS'04'
p279
aS'a5'
p280
aS'00'
p281
aS'00'
p282
aS'1d'
p283
aS'2b'
p284
aS'2b'
p285
aS'2b'
p286
aS'2b'
p287
aS'2b'
p288
aS'2b'
p289
aS'2b'
p290
aS'2b'
p291
aS'2b'
p292
asg72
(lp293
g48
aS'49'
p294
aS'06'
p295
aS'1b'
p296
aS'73'
p297
aS'4c'
p298
aS'62'
p299
aS'f2'
p300
aS'10'
p301
aS'52'
p302
aS'16'
p303
aS'd8'
p304
aS'04'
p305
aS'1e'
p306
aS'58'
p307
aS'65'
p308
aS'04'
p309
aS'a5'
p310
aS'00'
p311
aS'00'
p312
aS'3f'
p313
aS'b3'
p314
aS'2b'
p315
aS'2b'
p316
asg97
(lp317
g48
aS'59'
p318
aS'06'
p319
aS'1a'
p320
aS'00'
p321
aS'00'
p322
aS'00'
p323
aS'20'
p324
aS'a2'
p325
aS'10'
p326
aS'00'
p327
aS'00'
p328
aS'00'
p329
aS'00'
p330
aS'08'
p331
aS'00'
p332
aS'10'
p333
aS'48'
p334
aS'00'
p335
aS'00'
p336
aS'88'
p337
aS'a5'
p338
aS'00'
p339
aS'00'
p340
asg122
(lp341
g48
aS'55'
p342
aS'06'
p343
aS'19'
p344
aS'00'
p345
aS'00'
p346
aS'00'
p347
aS'00'
p348
aS'20'
p349
aS'00'
p350
aS'00'
p351
aS'00'
p352
aS'00'
p353
aS'01'
p354
aS'00'
p355
aS'10'
p356
aS'00'
p357
aS'00'
p358
aS'00'
p359
aS'00'
p360
aS'a5'
p361
aS'00'
p362
aS'00'
p363
aS'2b'
p364
asg147
S'Germany'
p365
sg149
I0
sg150
I01
sg151
I1
sba(ipyCatcherModel
BaseStationInformation
p366
(dp367
g6
(lp368
sg8
(dp369
g10
g11
ssg12
g13
sg14
(dp370
g16
g17
sg18
g17
sg19
g17
sg20
g17
sg21
g17
sg22
g17
sg23
g17
sg24
g17
ssg25
I29242
sg26
(lp371
I23
aI29
aI30
aI46
aI90
aI91
aI94
asg28
I-63
sg29
S'T-Mobile'
p372
sg31
I0
sg32
g33
sg34
g17
sg35
I102
sg36
g37
sg38
S'17:53:37'
p373
sg40
I21014
sg41
g11
sg42
S'3,1'
p374
sg44
(lp375
sg46
(lp376
g48
aS'31'
p377
aS'06'
p378
aS'1c'
p379
aS'62'
p380
aS'f2'
p381
aS'10'
p382
aS'52'
p383
aS'16'
p384
aS'65'
p385
aS'04'
p386
aS'a5'
p387
aS'00'
p388
aS'00'
p389
aS'1d'
p390
aS'2b'
p391
aS'2b'
p392
aS'2b'
p393
aS'2b'
p394
aS'2b'
p395
aS'2b'
p396
aS'2b'
p397
aS'2b'
p398
aS'2b'
p399
asg72
(lp400
g48
aS'49'
p401
aS'06'
p402
aS'1b'
p403
aS'72'
p404
aS'3a'
p405
aS'62'
p406
aS'f2'
p407
aS'10'
p408
aS'52'
p409
aS'16'
p410
aS'd8'
p411
aS'04'
p412
aS'1e'
p413
aS'58'
p414
aS'65'
p415
aS'04'
p416
aS'a5'
p417
aS'00'
p418
aS'00'
p419
aS'3f'
p420
aS'b3'
p421
aS'2b'
p422
aS'2b'
p423
asg97
(lp424
g48
aS'59'
p425
aS'06'
p426
aS'1a'
p427
aS'10'
p428
aS'00'
p429
aS'00'
p430
aS'20'
p431
aS'26'
p432
aS'00'
p433
aS'00'
p434
aS'00'
p435
aS'00'
p436
aS'00'
p437
aS'20'
p438
aS'00'
p439
aS'30'
p440
aS'40'
p441
aS'00'
p442
aS'00'
p443
aS'88'
p444
aS'a5'
p445
aS'00'
p446
aS'00'
p447
asg122
(lp448
g48
aS'55'
p449
aS'06'
p450
aS'19'
p451
aS'00'
p452
aS'00'
p453
aS'00'
p454
aS'20'
p455
aS'80'
p456
aS'00'
p457
aS'00'
p458
aS'00'
p459
aS'00'
p460
aS'00'
p461
aS'00'
p462
aS'00'
p463
aS'04'
p464
aS'00'
p465
aS'00'
p466
aS'00'
p467
aS'a5'
p468
aS'00'
p469
aS'00'
p470
aS'2b'
p471
asg147
S'Germany'
p472
sg149
I0
sg150
I01
sg151
I1
sba(ipyCatcherModel
BaseStationInformation
p473
(dp474
g6
(lp475
sg8
(dp476
g10
g11
ssg12
g13
sg14
(dp477
g16
g17
sg18
g17
sg19
g17
sg20
g17
sg21
g17
sg22
g17
sg23
g17
sg24
g17
ssg25
I29517
sg26
(lp478
I20
aI30
aI83
aI88
aI94
aI98
aI102
asg28
I-71
sg29
S'T-Mobile'
p479
sg31
I0
sg32
g33
sg34
g17
sg35
I23
sg36
g37
sg38
S'17:53:41'
p480
sg40
I21014
sg41
g11
sg42
S'3,3'
p481
sg44
(lp482
sg46
(lp483
g48
aS'31'
p484
aS'06'
p485
aS'1c'
p486
aS'62'
p487
aS'f2'
p488
aS'10'
p489
aS'52'
p490
aS'16'
p491
aS'65'
p492
aS'04'
p493
aS'a5'
p494
aS'00'
p495
aS'00'
p496
aS'1d'
p497
aS'2b'
p498
aS'2b'
p499
aS'2b'
p500
aS'2b'
p501
aS'2b'
p502
aS'2b'
p503
aS'2b'
p504
aS'2b'
p505
aS'2b'
p506
asg72
(lp507
g48
aS'49'
p508
aS'06'
p509
aS'1b'
p510
aS'73'
p511
aS'4d'
p512
aS'62'
p513
aS'f2'
p514
aS'10'
p515
aS'52'
p516
aS'16'
p517
aS'd8'
p518
aS'04'
p519
aS'1e'
p520
aS'58'
p521
aS'65'
p522
aS'04'
p523
aS'a5'
p524
aS'00'
p525
aS'00'
p526
aS'3f'
p527
aS'b3'
p528
aS'2b'
p529
aS'2b'
p530
asg97
(lp531
g48
aS'59'
p532
aS'06'
p533
aS'1a'
p534
aS'00'
p535
aS'00'
p536
aS'00'
p537
aS'22'
p538
aS'20'
p539
aS'84'
p540
aS'00'
p541
aS'00'
p542
aS'00'
p543
aS'00'
p544
aS'00'
p545
aS'00'
p546
aS'20'
p547
aS'48'
p548
aS'00'
p549
aS'00'
p550
aS'88'
p551
aS'a5'
p552
aS'00'
p553
aS'00'
p554
asg122
(lp555
g48
aS'55'
p556
aS'06'
p557
aS'19'
p558
aS'00'
p559
aS'00'
p560
aS'00'
p561
aS'00'
p562
aS'00'
p563
aS'00'
p564
aS'00'
p565
aS'00'
p566
aS'00'
p567
aS'00'
p568
aS'04'
p569
aS'00'
p570
aS'00'
p571
aS'41'
p572
aS'00'
p573
aS'00'
p574
aS'a5'
p575
aS'00'
p576
aS'00'
p577
aS'2b'
p578
asg147
S'Germany'
p579
sg149
I0
sg150
I01
sg151
I1
sba(ipyCatcherModel
BaseStationInformation
p580
(dp581
g6
(lp582
sg8
(dp583
g10
g11
ssg12
g13
sg14
(dp584
g16
g17
sg18
g17
sg19
g17
sg20
g17
sg21
g17
sg22
g17
sg23
g17
sg24
g17
ssg25
I19751
sg26
(lp585
I3
aI4
aI8
aI51
aI52
aI58
aI64
aI65
aI67
aI70
aI104
aI105
aI117
aI121
asg28
I-66
sg29
S'Vodafone'
p586
sg31
I0
sg32
g33
sg34
g17
sg35
I118
sg36
g37
sg38
S'17:53:46'
p587
sg40
I793
sg41
g11
sg42
S'7,5'
p588
sg44
(lp589
sg46
(lp590
g48
aS'31'
p591
aS'06'
p592
aS'1c'
p593
aS'62'
p594
aS'f2'
p595
aS'20'
p596
aS'03'
p597
aS'19'
p598
aS'65'
p599
aS'04'
p600
aS'b9'
p601
aS'00'
p602
aS'00'
p603
aS'80'
p604
aS'1f'
p605
aS'4b'
p606
aS'2b'
p607
aS'2b'
p608
aS'2b'
p609
aS'2b'
p610
aS'2b'
p611
aS'2b'
p612
aS'2b'
p613
asg72
(lp614
g48
aS'49'
p615
aS'06'
p616
aS'1b'
p617
aS'4d'
p618
aS'27'
p619
aS'62'
p620
aS'f2'
p621
aS'20'
p622
aS'03'
p623
aS'19'
p624
aS'c8'
p625
aS'04'
p626
aS'0a'
p627
aS'15'
p628
aS'65'
p629
aS'04'
p630
aS'b9'
p631
aS'00'
p632
aS'00'
p633
aS'80'
p634
aS'1f'
p635
aS'01'
p636
aS'1b'
p637
asg97
(lp638
g48
aS'59'
p639
aS'06'
p640
aS'1a'
p641
aS'01'
p642
aS'10'
p643
aS'01'
p644
aS'80'
p645
aS'00'
p646
aS'00'
p647
aS'00'
p648
aS'25'
p649
aS'82'
p650
aS'0c'
p651
aS'00'
p652
aS'00'
p653
aS'00'
p654
aS'00'
p655
aS'00'
p656
aS'8c'
p657
aS'88'
p658
aS'b9'
p659
aS'00'
p660
aS'00'
p661
asg122
(lp662
g48
aS'55'
p663
aS'06'
p664
aS'19'
p665
aS'00'
p666
aS'04'
p667
aS'80'
p668
aS'00'
p669
aS'00'
p670
aS'00'
p671
aS'00'
p672
aS'00'
p673
aS'00'
p674
aS'00'
p675
aS'00'
p676
aS'00'
p677
aS'00'
p678
aS'00'
p679
aS'04'
p680
aS'20'
p681
aS'b9'
p682
aS'00'
p683
aS'00'
p684
aS'83'
p685
asg147
S'Germany'
p686
sg149
I0
sg150
I01
sg151
I1
sba(ipyCatcherModel
BaseStationInformation
p687
(dp688
g6
(lp689
sg8
(dp690
g10
g11
ssg12
g13
sg14
(dp691
g16
g17
sg18
g17
sg19
g17
sg20
g17
sg21
g17
sg22
g17
sg23
g17
sg24
g17
ssg25
I58642
sg26
(lp692
I4
aI7
aI8
aI51
aI52
aI58
aI64
aI65
aI67
aI70
aI73
aI74
aI78
aI104
aI105
aI115
aI118
aI121
asg28
I-70
sg29
S'Vodafone'
p693
sg31
I0
sg32
g33
sg34
g17
sg35
I3
sg36
g37
sg38
S'17:53:54'
p694
sg40
I793
sg41
g11
sg42
S'3,5'
p695
sg44
(lp696
sg46
(lp697
g48
aS'31'
p698
aS'06'
p699
aS'1c'
p700
aS'62'
p701
aS'f2'
p702
aS'20'
p703
aS'03'
p704
aS'19'
p705
aS'65'
p706
aS'04'
p707
aS'b9'
p708
aS'00'
p709
aS'00'
p710
aS'80'
p711
aS'1f'
p712
aS'4b'
p713
aS'2b'
p714
aS'2b'
p715
aS'2b'
p716
aS'2b'
p717
aS'2b'
p718
aS'2b'
p719
aS'2b'
p720
asg72
(lp721
g48
aS'49'
p722
aS'06'
p723
aS'1b'
p724
aS'e5'
p725
aS'12'
p726
aS'62'
p727
aS'f2'
p728
aS'20'
p729
aS'03'
p730
aS'19'
p731
aS'c8'
p732
aS'04'
p733
aS'0a'
p734
aS'15'
p735
aS'65'
p736
aS'04'
p737
aS'b9'
p738
aS'00'
p739
aS'00'
p740
aS'80'
p741
aS'1f'
p742
aS'01'
p743
aS'1b'
p744
asg97
(lp745
g48
aS'59'
p746
aS'06'
p747
aS'1a'
p748
aS'01'
p749
aS'24'
p750
aS'01'
p751
aS'80'
p752
aS'00'
p753
aS'00'
p754
aS'23'
p755
aS'25'
p756
aS'82'
p757
aS'0c'
p758
aS'00'
p759
aS'00'
p760
aS'00'
p761
aS'00'
p762
aS'00'
p763
aS'c8'
p764
aS'88'
p765
aS'b9'
p766
aS'00'
p767
aS'00'
p768
asg122
(lp769
g48
aS'55'
p770
aS'06'
p771
aS'19'
p772
aS'00'
p773
aS'00'
p774
aS'10'
p775
aS'00'
p776
aS'00'
p777
aS'00'
p778
aS'10'
p779
aS'40'
p780
aS'05'
p781
aS'40'
p782
aS'00'
p783
aS'00'
p784
aS'00'
p785
aS'00'
p786
aS'00'
p787
aS'00'
p788
aS'b9'
p789
aS'00'
p790
aS'00'
p791
aS'83'
p792
asg147
S'Germany'
p793
sg149
I0
sg150
I01
sg151
I1
sba(ipyCatcherModel
BaseStationInformation
p794
(dp795
g6
(lp796
g48
aS'01'
p797
aS'06'
p798
aS'03'
p799
aS'9f'
p800
aS'2d'
p801
aS'80'
p802
aS'00'
p803
aS'00'
p804
aS'00'
p805
aS'00'
p806
aS'00'
p807
aS'00'
p808
aS'00'
p809
aS'00'
p810
aS'00'
p811
aS'00'
p812
aS'00'
p813
aS'00'
p814
aS'00'
p815
aS'2b'
p816
aS'2b'
p817
aS'2b'
p818
aS'2b'
p819
asg8
(dp820
g10
g11
ssg12
g13
sg14
(dp821
g16
g17
sg18
g17
sg19
g17
sg20
g17
sg21
g17
sg22
g17
sg23
g17
sg24
g17
ssg25
I2606
sg26
(lp822
I18
aI23
aI29
aI44
aI45
aI82
aI85
aI88
aI90
aI94
aI96
aI98
aI603
asg28
I-87
sg29
S'T-Mobile'
p823
sg31
I0
sg32
g33
sg34
g17
sg35
I20
sg36
g37
sg38
S'17:53:57'
p824
sg40
I21014
sg41
g11
sg42
S'7,0'
p825
sg44
(lp826
sg46
(lp827
g48
aS'31'
p828
aS'06'
p829
aS'1c'
p830
aS'62'
p831
aS'f2'
p832
aS'10'
p833
aS'52'
p834
aS'16'
p835
aS'65'
p836
aS'04'
p837
aS'a5'
p838
aS'00'
p839
aS'00'
p840
aS'1d'
p841
aS'2b'
p842
aS'2b'
p843
aS'2b'
p844
aS'2b'
p845
aS'2b'
p846
aS'2b'
p847
aS'2b'
p848
aS'2b'
p849
aS'2b'
p850
asg72
(lp851
g48
aS'49'
p852
aS'06'
p853
aS'1b'
p854
aS'0a'
p855
aS'2e'
p856
aS'62'
p857
aS'f2'
p858
aS'10'
p859
aS'52'
p860
aS'16'
p861
aS'd8'
p862
aS'04'
p863
aS'1e'
p864
aS'58'
p865
aS'65'
p866
aS'04'
p867
aS'a5'
p868
aS'00'
p869
aS'00'
p870
aS'1f'
p871
aS'b3'
p872
aS'2b'
p873
aS'2b'
p874
asg97
(lp875
g48
aS'59'
p876
aS'06'
p877
aS'1a'
p878
aS'10'
p879
aS'00'
p880
aS'00'
p881
aS'02'
p882
aS'a2'
p883
aS'92'
p884
aS'00'
p885
aS'00'
p886
aS'00'
p887
aS'00'
p888
aS'18'
p889
aS'00'
p890
aS'10'
p891
aS'4a'
p892
aS'00'
p893
aS'00'
p894
aS'88'
p895
aS'a5'
p896
aS'00'
p897
aS'00'
p898
asg122
(lp899
g48
aS'55'
p900
aS'06'
p901
aS'19'
p902
aS'00'
p903
aS'00'
p904
aS'00'
p905
aS'00'
p906
aS'00'
p907
aS'00'
p908
aS'00'
p909
aS'00'
p910
aS'00'
p911
aS'00'
p912
aS'00'
p913
aS'40'
p914
aS'00'
p915
aS'08'
p916
aS'00'
p917
aS'00'
p918
aS'a5'
p919
aS'00'
p920
aS'00'
p921
aS'2b'
p922
asg147
S'Germany'
p923
sg149
I0
sg150
I01
sg151
I1
sba(ipyCatcherModel
BaseStationInformation
p924
(dp925
g6
(lp926
sg8
(dp927
g10
g11
ssg12
g13
sg14
(dp928
g16
g17
sg18
g17
sg19
g17
sg20
g17
sg21
g17
sg22
g17
sg23
g17
sg24
g17
ssg25
I8432
sg26
(lp929
I45
aI46
aI85
aI86
aI90
aI91
aI100
aI102
asg28
I-70
sg29
S'T-Mobile'
p930
sg31
I0
sg32
g33
sg34
g17
sg35
I29
sg36
g37
sg38
S'17:54:00'
p931
sg40
I21014
sg41
g11
sg42
S'3,3'
p932
sg44
(lp933
sg46
(lp934
g48
aS'31'
p935
aS'06'
p936
aS'1c'
p937
aS'62'
p938
aS'f2'
p939
aS'10'
p940
aS'52'
p941
aS'16'
p942
aS'65'
p943
aS'04'
p944
aS'a5'
p945
aS'00'
p946
aS'00'
p947
aS'1d'
p948
aS'2b'
p949
aS'2b'
p950
aS'2b'
p951
aS'2b'
p952
aS'2b'
p953
aS'2b'
p954
aS'2b'
p955
aS'2b'
p956
aS'2b'
p957
asg72
(lp958
g48
aS'49'
p959
aS'06'
p960
aS'1b'
p961
aS'20'
p962
aS'f0'
p963
aS'62'
p964
aS'f2'
p965
aS'10'
p966
aS'52'
p967
aS'16'
p968
aS'd8'
p969
aS'04'
p970
aS'1e'
p971
aS'58'
p972
aS'65'
p973
aS'04'
p974
aS'a5'
p975
aS'00'
p976
aS'00'
p977
aS'3f'
p978
aS'b3'
p979
aS'2b'
p980
aS'2b'
p981
asg97
(lp982
g48
aS'59'
p983
aS'06'
p984
aS'1a'
p985
aS'10'
p986
aS'00'
p987
aS'00'
p988
aS'28'
p989
aS'06'
p990
aS'30'
p991
aS'00'
p992
aS'00'
p993
aS'00'
p994
aS'00'
p995
aS'30'
p996
aS'00'
p997
aS'10'
p998
aS'00'
p999
aS'00'
p1000
aS'00'
p1001
aS'88'
p1002
aS'a5'
p1003
aS'00'
p1004
aS'00'
p1005
asg122
(lp1006
g48
aS'55'
p1007
aS'06'
p1008
aS'19'
p1009
aS'00'
p1010
aS'00'
p1011
aS'00'
p1012
aS'00'
p1013
aS'00'
p1014
aS'04'
p1015
aS'00'
p1016
aS'00'
p1017
aS'00'
p1018
aS'00'
p1019
aS'00'
p1020
aS'04'
p1021
aS'10'
p1022
aS'40'
p1023
aS'00'
p1024
aS'00'
p1025
aS'a5'
p1026
aS'00'
p1027
aS'00'
p1028
aS'2b'
p1029
asg147
S'Germany'
p1030
sg149
I0
sg150
I01
sg151
I1
sba(ipyCatcherModel
BaseStationInformation
p1031
(dp1032
g6
(lp1033
g48
aS'01'
p1034
aS'06'
p1035
aS'03'
p1036
aS'df'
p1037
aS'74'
p1038
aS'80'
p1039
aS'00'
p1040
aS'00'
p1041
aS'00'
p1042
aS'00'
p1043
aS'00'
p1044
aS'00'
p1045
aS'00'
p1046
aS'00'
p1047
aS'00'
p1048
aS'00'
p1049
aS'00'
p1050
aS'00'
p1051
aS'00'
p1052
aS'2b'
p1053
aS'2b'
p1054
aS'2b'
p1055
aS'2b'
p1056
asg8
(dp1057
g10
g11
ssg12
g13
sg14
(dp1058
g16
g17
sg18
g17
sg19
g17
sg20
g17
sg21
g17
sg22
g17
sg23
g17
sg24
g17
ssg25
I19761
sg26
(lp1059
I3
aI7
aI8
aI52
aI64
aI70
aI73
aI104
aI105
aI115
aI117
aI118
aI745
asg28
I-74
sg29
S'Vodafone'
p1060
sg31
I0
sg32
g33
sg34
g17
sg35
I58
sg36
g37
sg38
S'17:54:03'
p1061
sg40
I793
sg41
g11
sg42
S'3,1'
p1062
sg44
(lp1063
sg46
(lp1064
g48
aS'31'
p1065
aS'06'
p1066
aS'1c'
p1067
aS'62'
p1068
aS'f2'
p1069
aS'20'
p1070
aS'03'
p1071
aS'19'
p1072
aS'65'
p1073
aS'04'
p1074
aS'b9'
p1075
aS'00'
p1076
aS'00'
p1077
aS'80'
p1078
aS'1f'
p1079
aS'4b'
p1080
aS'2b'
p1081
aS'2b'
p1082
aS'2b'
p1083
aS'2b'
p1084
aS'2b'
p1085
aS'2b'
p1086
aS'2b'
p1087
asg72
(lp1088
g48
aS'49'
p1089
aS'06'
p1090
aS'1b'
p1091
aS'4d'
p1092
aS'31'
p1093
aS'62'
p1094
aS'f2'
p1095
aS'20'
p1096
aS'03'
p1097
aS'19'
p1098
aS'c8'
p1099
aS'04'
p1100
aS'0a'
p1101
aS'15'
p1102
aS'65'
p1103
aS'04'
p1104
aS'b9'
p1105
aS'00'
p1106
aS'00'
p1107
aS'80'
p1108
aS'1f'
p1109
aS'41'
p1110
aS'1b'
p1111
asg97
(lp1112
g48
aS'59'
p1113
aS'06'
p1114
aS'1a'
p1115
aS'10'
p1116
aS'34'
p1117
aS'01'
p1118
aS'80'
p1119
aS'00'
p1120
aS'00'
p1121
aS'01'
p1122
aS'20'
p1123
aS'80'
p1124
aS'08'
p1125
aS'00'
p1126
aS'00'
p1127
aS'00'
p1128
aS'00'
p1129
aS'00'
p1130
aS'c4'
p1131
aS'88'
p1132
aS'b9'
p1133
aS'00'
p1134
aS'00'
p1135
asg122
(lp1136
g48
aS'55'
p1137
aS'06'
p1138
aS'19'
p1139
aS'00'
p1140
aS'00'
p1141
aS'00'
p1142
aS'00'
p1143
aS'00'
p1144
aS'00'
p1145
aS'80'
p1146
aS'01'
p1147
aS'00'
p1148
aS'24'
p1149
aS'00'
p1150
aS'00'
p1151
aS'00'
p1152
aS'00'
p1153
aS'00'
p1154
aS'00'
p1155
aS'b9'
p1156
aS'00'
p1157
aS'00'
p1158
aS'83'
p1159
asg147
S'Germany'
p1160
sg149
I0
sg150
I01
sg151
I1
sba(ipyCatcherModel
BaseStationInformation
p1161
(dp1162
g6
(lp1163
g48
aS'01'
p1164
aS'06'
p1165
aS'03'
p1166
aS'cf'
p1167
aS'eb'
p1168
aS'00'
p1169
aS'00'
p1170
aS'00'
p1171
aS'00'
p1172
aS'00'
p1173
aS'00'
p1174
aS'00'
p1175
aS'00'
p1176
aS'00'
p1177
aS'00'
p1178
aS'00'
p1179
aS'00'
p1180
aS'00'
p1181
aS'00'
p1182
aS'2b'
p1183
aS'2b'
p1184
aS'2b'
p1185
aS'2b'
p1186
asg8
(dp1187
g10
g11
ssg12
g13
sg14
(dp1188
g16
g17
sg18
g17
sg19
g17
sg20
g17
sg21
g17
sg22
g17
sg23
g17
sg24
g17
ssg25
I40018
sg26
(lp1189
I791
aI795
aI805
aI806
aI813
aI819
aI821
aI826
aI982
asg28
I-62
sg29
S'E-Plus'
p1190
sg31
I0
sg32
g33
sg34
g17
sg35
I829
sg36
g37
sg38
S'17:54:08'
p1191
sg40
I588
sg41
g11
sg42
S'3,4'
p1192
sg44
(lp1193
sg46
(lp1194
g48
aS'31'
p1195
aS'06'
p1196
aS'1c'
p1197
aS'62'
p1198
aS'f2'
p1199
aS'30'
p1200
aS'02'
p1201
aS'4c'
p1202
aS'60'
p1203
aS'43'
p1204
aS'a4'
p1205
aS'00'
p1206
aS'00'
p1207
aS'09'
p1208
aS'2b'
p1209
aS'2b'
p1210
aS'2b'
p1211
aS'2b'
p1212
aS'2b'
p1213
aS'2b'
p1214
aS'2b'
p1215
aS'2b'
p1216
aS'2b'
p1217
asg72
(lp1218
g48
aS'49'
p1219
aS'06'
p1220
aS'1b'
p1221
aS'9c'
p1222
aS'52'
p1223
aS'62'
p1224
aS'f2'
p1225
aS'30'
p1226
aS'02'
p1227
aS'4c'
p1228
aS'c9'
p1229
aS'05'
p1230
aS'78'
p1231
aS'09'
p1232
aS'60'
p1233
aS'43'
p1234
aS'a4'
p1235
aS'00'
p1236
aS'00'
p1237
aS'1d'
p1238
aS'3b'
p1239
aS'2b'
p1240
aS'2b'
p1241
asg97
(lp1242
g48
aS'59'
p1243
aS'06'
p1244
aS'1a'
p1245
aS'8f'
p1246
aS'8b'
p1247
aS'88'
p1248
aS'03'
p1249
aS'02'
p1250
aS'0a'
p1251
aS'10'
p1252
aS'00'
p1253
aS'00'
p1254
aS'00'
p1255
aS'00'
p1256
aS'00'
p1257
aS'00'
p1258
aS'00'
p1259
aS'00'
p1260
aS'00'
p1261
aS'08'
p1262
aS'a4'
p1263
aS'00'
p1264
aS'00'
p1265
asg122
(lp1266
g48
aS'55'
p1267
aS'06'
p1268
aS'19'
p1269
aS'8f'
p1270
aS'9e'
p1271
aS'90'
p1272
aS'80'
p1273
aS'09'
p1274
aS'18'
p1275
aS'00'
p1276
aS'00'
p1277
aS'00'
p1278
aS'00'
p1279
aS'00'
p1280
aS'00'
p1281
aS'00'
p1282
aS'00'
p1283
aS'00'
p1284
aS'00'
p1285
aS'a4'
p1286
aS'00'
p1287
aS'00'
p1288
aS'2b'
p1289
asg147
S'Germany'
p1290
sg149
I0
sg150
I01
sg151
I1
sba(ipyCatcherModel
BaseStationInformation
p1291
(dp1292
g6
(lp1293
sg8
(dp1294
g10
g11
ssg12
g13
sg14
(dp1295
g16
g17
sg18
g17
sg19
g17
sg20
g17
sg21
g17
sg22
g17
sg23
g17
sg24
g17
ssg25
I19771
sg26
(lp1296
I3
aI7
aI8
aI52
aI57
aI64
aI66
aI74
aI104
aI105
aI115
aI117
asg28
I-76
sg29
S'Vodafone'
p1297
sg31
I0
sg32
g33
sg34
g17
sg35
I78
sg36
g37
sg38
S'17:54:16'
p1298
sg40
I793
sg41
g11
sg42
S'7,6'
p1299
sg44
(lp1300
sg46
(lp1301
g48
aS'31'
p1302
aS'06'
p1303
aS'1c'
p1304
aS'62'
p1305
aS'f2'
p1306
aS'20'
p1307
aS'03'
p1308
aS'19'
p1309
aS'65'
p1310
aS'04'
p1311
aS'b9'
p1312
aS'00'
p1313
aS'00'
p1314
aS'80'
p1315
aS'1f'
p1316
aS'4b'
p1317
aS'2b'
p1318
aS'2b'
p1319
aS'2b'
p1320
aS'2b'
p1321
aS'2b'
p1322
aS'2b'
p1323
aS'2b'
p1324
asg72
(lp1325
g48
aS'49'
p1326
aS'06'
p1327
aS'1b'
p1328
aS'4d'
p1329
aS'3b'
p1330
aS'62'
p1331
aS'f2'
p1332
aS'20'
p1333
aS'03'
p1334
aS'19'
p1335
aS'c8'
p1336
aS'04'
p1337
aS'0a'
p1338
aS'15'
p1339
aS'65'
p1340
aS'04'
p1341
aS'b9'
p1342
aS'00'
p1343
aS'00'
p1344
aS'80'
p1345
aS'1f'
p1346
aS'01'
p1347
aS'1b'
p1348
asg97
(lp1349
g48
aS'59'
p1350
aS'06'
p1351
aS'1a'
p1352
aS'00'
p1353
aS'14'
p1354
aS'01'
p1355
aS'80'
p1356
aS'00'
p1357
aS'00'
p1358
aS'02'
p1359
aS'02'
p1360
aS'81'
p1361
aS'08'
p1362
aS'00'
p1363
aS'00'
p1364
aS'00'
p1365
aS'00'
p1366
aS'00'
p1367
aS'c4'
p1368
aS'88'
p1369
aS'b9'
p1370
aS'00'
p1371
aS'00'
p1372
asg122
(lp1373
g48
aS'55'
p1374
aS'06'
p1375
aS'19'
p1376
aS'00'
p1377
aS'00'
p1378
aS'00'
p1379
aS'00'
p1380
aS'00'
p1381
aS'00'
p1382
aS'00'
p1383
aS'02'
p1384
aS'00'
p1385
aS'50'
p1386
aS'00'
p1387
aS'00'
p1388
aS'00'
p1389
aS'00'
p1390
aS'00'
p1391
aS'00'
p1392
aS'b9'
p1393
aS'00'
p1394
aS'00'
p1395
aS'83'
p1396
asg147
S'Germany'
p1397
sg149
I0
sg150
I01
sg151
I1
sba(ipyCatcherModel
BaseStationInformation
p1398
(dp1399
g6
(lp1400
sg8
(dp1401
g10
g11
ssg12
g13
sg14
(dp1402
g16
g17
sg18
g17
sg19
g17
sg20
g17
sg21
g17
sg22
g17
sg23
g17
sg24
g17
ssg25
I65398
sg26
(lp1403
I44
aI48
aI85
aI86
aI91
asg28
I-81
sg29
S'T-Mobile'
p1404
sg31
I0
sg32
g33
sg34
g17
sg35
I26
sg36
g37
sg38
S'17:54:20'
p1405
sg40
I21014
sg41
g11
sg42
S'7,1'
p1406
sg44
(lp1407
sg46
(lp1408
g48
aS'31'
p1409
aS'06'
p1410
aS'1c'
p1411
aS'62'
p1412
aS'f2'
p1413
aS'10'
p1414
aS'52'
p1415
aS'16'
p1416
aS'65'
p1417
aS'04'
p1418
aS'a5'
p1419
aS'00'
p1420
aS'00'
p1421
aS'1d'
p1422
aS'2b'
p1423
aS'2b'
p1424
aS'2b'
p1425
aS'2b'
p1426
aS'2b'
p1427
aS'2b'
p1428
aS'2b'
p1429
aS'2b'
p1430
aS'2b'
p1431
asg72
(lp1432
g48
aS'49'
p1433
aS'06'
p1434
aS'1b'
p1435
aS'ff'
p1436
aS'76'
p1437
aS'62'
p1438
aS'f2'
p1439
aS'10'
p1440
aS'52'
p1441
aS'16'
p1442
aS'd8'
p1443
aS'04'
p1444
aS'1e'
p1445
aS'58'
p1446
aS'65'
p1447
aS'04'
p1448
aS'a5'
p1449
aS'00'
p1450
aS'00'
p1451
aS'3f'
p1452
aS'b3'
p1453
aS'2b'
p1454
aS'2b'
p1455
asg97
(lp1456
g48
aS'59'
p1457
aS'06'
p1458
aS'1a'
p1459
aS'00'
p1460
aS'00'
p1461
aS'00'
p1462
aS'00'
p1463
aS'04'
p1464
aS'30'
p1465
aS'00'
p1466
aS'00'
p1467
aS'00'
p1468
aS'00'
p1469
aS'88'
p1470
aS'00'
p1471
aS'02'
p1472
aS'00'
p1473
aS'00'
p1474
aS'00'
p1475
aS'88'
p1476
aS'a5'
p1477
aS'00'
p1478
aS'00'
p1479
asg122
(lp1480
g48
aS'55'
p1481
aS'06'
p1482
aS'19'
p1483
aS'00'
p1484
aS'00'
p1485
aS'00'
p1486
aS'00'
p1487
aS'41'
p1488
aS'00'
p1489
aS'00'
p1490
aS'00'
p1491
aS'00'
p1492
aS'00'
p1493
aS'00'
p1494
aS'00'
p1495
aS'02'
p1496
aS'00'
p1497
aS'00'
p1498
aS'00'
p1499
aS'a5'
p1500
aS'00'
p1501
aS'00'
p1502
aS'2b'
p1503
asg147
S'Germany'
p1504
sg149
I0
sg150
I01
sg151
I1
sba(ipyCatcherModel
BaseStationInformation
p1505
(dp1506
g6
(lp1507
sg8
(dp1508
g10
g11
ssg12
g13
sg14
(dp1509
g16
g17
sg18
g17
sg19
g17
sg20
g17
sg21
g17
sg22
g17
sg23
g17
sg24
g17
ssg25
I61929
sg26
(lp1510
I18
aI20
aI21
aI23
aI24
aI45
aI46
aI82
aI86
aI100
asg28
I-74
sg29
S'T-Mobile'
p1511
sg31
I0
sg32
g33
sg34
g17
sg35
I88
sg36
g37
sg38
S'17:54:23'
p1512
sg40
I21014
sg41
g11
sg42
S'7,0'
p1513
sg44
(lp1514
sg46
(lp1515
g48
aS'31'
p1516
aS'06'
p1517
aS'1c'
p1518
aS'62'
p1519
aS'f2'
p1520
aS'10'
p1521
aS'52'
p1522
aS'16'
p1523
aS'65'
p1524
aS'04'
p1525
aS'a5'
p1526
aS'00'
p1527
aS'00'
p1528
aS'1d'
p1529
aS'2b'
p1530
aS'2b'
p1531
aS'2b'
p1532
aS'2b'
p1533
aS'2b'
p1534
aS'2b'
p1535
aS'2b'
p1536
aS'2b'
p1537
aS'2b'
p1538
asg72
(lp1539
g48
aS'49'
p1540
aS'06'
p1541
aS'1b'
p1542
aS'f1'
p1543
aS'e9'
p1544
aS'62'
p1545
aS'f2'
p1546
aS'10'
p1547
aS'52'
p1548
aS'16'
p1549
aS'd8'
p1550
aS'04'
p1551
aS'1e'
p1552
aS'58'
p1553
aS'65'
p1554
aS'04'
p1555
aS'a5'
p1556
aS'00'
p1557
aS'00'
p1558
aS'3f'
p1559
aS'b3'
p1560
aS'2b'
p1561
aS'2b'
p1562
asg97
(lp1563
g48
aS'59'
p1564
aS'06'
p1565
aS'1a'
p1566
aS'10'
p1567
aS'00'
p1568
aS'00'
p1569
aS'08'
p1570
aS'00'
p1571
aS'a2'
p1572
aS'00'
p1573
aS'00'
p1574
aS'00'
p1575
aS'00'
p1576
aS'30'
p1577
aS'00'
p1578
aS'00'
p1579
aS'da'
p1580
aS'00'
p1581
aS'00'
p1582
aS'88'
p1583
aS'a5'
p1584
aS'00'
p1585
aS'00'
p1586
asg122
(lp1587
g48
aS'55'
p1588
aS'06'
p1589
aS'19'
p1590
aS'00'
p1591
aS'00'
p1592
aS'00'
p1593
aS'00'
p1594
aS'00'
p1595
aS'80'
p1596
aS'00'
p1597
aS'00'
p1598
aS'00'
p1599
aS'00'
p1600
aS'00'
p1601
aS'01'
p1602
aS'00'
p1603
aS'00'
p1604
aS'00'
p1605
aS'00'
p1606
aS'a5'
p1607
aS'00'
p1608
aS'00'
p1609
aS'2b'
p1610
asg147
S'Germany'
p1611
sg149
I0
sg150
I01
sg151
I1
sba(ipyCatcherModel
BaseStationInformation
p1612
(dp1613
g6
(lp1614
g48
aS'01'
p1615
aS'06'
p1616
aS'03'
p1617
aS'cf'
p1618
aS'eb'
p1619
aS'08'
p1620
aS'00'
p1621
aS'00'
p1622
aS'00'
p1623
aS'00'
p1624
aS'00'
p1625
aS'00'
p1626
aS'00'
p1627
aS'00'
p1628
aS'00'
p1629
aS'00'
p1630
aS'00'
p1631
aS'00'
p1632
aS'00'
p1633
aS'2b'
p1634
aS'2b'
p1635
aS'2b'
p1636
aS'2b'
p1637
asg8
(dp1638
g10
g11
ssg12
g13
sg14
(dp1639
g16
g17
sg18
g17
sg19
g17
sg20
g17
sg21
g17
sg22
g17
sg23
g17
sg24
g17
ssg25
I40028
sg26
(lp1640
I777
aI813
aI817
aI821
aI823
aI826
aI829
aI863
aI982
aI986
asg28
I-64
sg29
S'E-Plus'
p1641
sg31
I0
sg32
g33
sg34
g17
sg35
I805
sg36
g37
sg38
S'17:54:26'
p1642
sg40
I588
sg41
g11
sg42
S'3,1'
p1643
sg44
(lp1644
sg46
(lp1645
g48
aS'31'
p1646
aS'06'
p1647
aS'1c'
p1648
aS'62'
p1649
aS'f2'
p1650
aS'30'
p1651
aS'02'
p1652
aS'4c'
p1653
aS'60'
p1654
aS'43'
p1655
aS'a4'
p1656
aS'00'
p1657
aS'00'
p1658
aS'09'
p1659
aS'2b'
p1660
aS'2b'
p1661
aS'2b'
p1662
aS'2b'
p1663
aS'2b'
p1664
aS'2b'
p1665
aS'2b'
p1666
aS'2b'
p1667
aS'2b'
p1668
asg72
(lp1669
g48
aS'49'
p1670
aS'06'
p1671
aS'1b'
p1672
aS'9c'
p1673
aS'5c'
p1674
aS'62'
p1675
aS'f2'
p1676
aS'30'
p1677
aS'02'
p1678
aS'4c'
p1679
aS'c8'
p1680
aS'05'
p1681
aS'78'
p1682
aS'09'
p1683
aS'60'
p1684
aS'43'
p1685
aS'a4'
p1686
aS'00'
p1687
aS'00'
p1688
aS'1d'
p1689
aS'3b'
p1690
aS'2b'
p1691
aS'2b'
p1692
asg97
(lp1693
g48
aS'59'
p1694
aS'06'
p1695
aS'1a'
p1696
aS'8f'
p1697
aS'84'
p1698
aS'80'
p1699
aS'00'
p1700
aS'00'
p1701
aS'00'
p1702
aS'08'
p1703
aS'8a'
p1704
aS'48'
p1705
aS'00'
p1706
aS'00'
p1707
aS'00'
p1708
aS'02'
p1709
aS'00'
p1710
aS'00'
p1711
aS'00'
p1712
aS'08'
p1713
aS'a4'
p1714
aS'00'
p1715
aS'00'
p1716
asg122
(lp1717
g48
aS'55'
p1718
aS'06'
p1719
aS'19'
p1720
aS'8f'
p1721
aS'85'
p1722
aS'c4'
p1723
aS'00'
p1724
aS'c2'
p1725
aS'20'
p1726
aS'00'
p1727
aS'00'
p1728
aS'00'
p1729
aS'00'
p1730
aS'00'
p1731
aS'00'
p1732
aS'00'
p1733
aS'00'
p1734
aS'00'
p1735
aS'00'
p1736
aS'a4'
p1737
aS'00'
p1738
aS'00'
p1739
aS'2b'
p1740
asg147
S'Germany'
p1741
sg149
I0
sg150
I01
sg151
I1
sba(ipyCatcherModel
BaseStationInformation
p1742
(dp1743
g6
(lp1744
g48
aS'01'
p1745
aS'06'
p1746
aS'03'
p1747
aS'cf'
p1748
aS'6a'
p1749
aS'aa'
p1750
aS'00'
p1751
aS'00'
p1752
aS'00'
p1753
aS'00'
p1754
aS'00'
p1755
aS'00'
p1756
aS'00'
p1757
aS'00'
p1758
aS'00'
p1759
aS'00'
p1760
aS'00'
p1761
aS'00'
p1762
aS'00'
p1763
aS'2b'
p1764
aS'2b'
p1765
aS'2b'
p1766
aS'2b'
p1767
asg8
(dp1768
g10
g11
ssg12
g13
sg14
(dp1769
g16
g17
sg18
g17
sg19
g17
sg20
g17
sg21
g17
sg22
g17
sg23
g17
sg24
g17
ssg25
I20482
sg26
(lp1770
I1
aI3
aI57
aI60
aI62
aI64
aI65
aI66
aI75
aI77
aI79
aI107
aI108
aI111
aI115
aI119
aI121
aI725
aI727
aI729
aI731
asg28
I-95
sg29
S'Vodafone'
p1771
sg31
I0
sg32
g33
sg34
g17
sg35
I113
sg36
g37
sg38
S'17:54:38'
p1772
sg40
I793
sg41
g11
sg42
S'3,4'
p1773
sg44
(lp1774
sg46
(lp1775
g48
aS'31'
p1776
aS'06'
p1777
aS'1c'
p1778
aS'62'
p1779
aS'f2'
p1780
aS'20'
p1781
aS'03'
p1782
aS'19'
p1783
aS'65'
p1784
aS'04'
p1785
aS'b9'
p1786
aS'00'
p1787
aS'00'
p1788
aS'80'
p1789
aS'1f'
p1790
aS'4b'
p1791
aS'2b'
p1792
aS'2b'
p1793
aS'2b'
p1794
aS'2b'
p1795
aS'2b'
p1796
aS'2b'
p1797
aS'2b'
p1798
asg72
(lp1799
g48
aS'49'
p1800
aS'06'
p1801
aS'1b'
p1802
aS'50'
p1803
aS'02'
p1804
aS'62'
p1805
aS'f2'
p1806
aS'20'
p1807
aS'03'
p1808
aS'19'
p1809
aS'c8'
p1810
aS'04'
p1811
aS'0a'
p1812
aS'15'
p1813
aS'65'
p1814
aS'04'
p1815
aS'b9'
p1816
aS'00'
p1817
aS'00'
p1818
aS'80'
p1819
aS'1f'
p1820
aS'41'
p1821
aS'1b'
p1822
asg97
(lp1823
g48
aS'59'
p1824
aS'06'
p1825
aS'1a'
p1826
aS'01'
p1827
aS'44'
p1828
aS'4c'
p1829
aS'00'
p1830
aS'00'
p1831
aS'00'
p1832
aS'54'
p1833
aS'03'
p1834
aS'a9'
p1835
aS'00'
p1836
aS'00'
p1837
aS'00'
p1838
aS'00'
p1839
aS'00'
p1840
aS'00'
p1841
aS'05'
p1842
aS'88'
p1843
aS'b9'
p1844
aS'00'
p1845
aS'00'
p1846
asg122
(lp1847
g48
aS'55'
p1848
aS'06'
p1849
aS'19'
p1850
aS'00'
p1851
aS'00'
p1852
aS'20'
p1853
aS'80'
p1854
aS'00'
p1855
aS'00'
p1856
aS'00'
p1857
aS'40'
p1858
aS'00'
p1859
aS'00'
p1860
aS'00'
p1861
aS'00'
p1862
aS'00'
p1863
aS'00'
p1864
aS'00'
p1865
aS'80'
p1866
aS'b9'
p1867
aS'00'
p1868
aS'00'
p1869
aS'83'
p1870
asg147
S'Germany'
p1871
sg149
I0
sg150
I01
sg151
I1
sba(ipyCatcherModel
BaseStationInformation
p1872
(dp1873
g6
(lp1874
sg8
(dp1875
g10
g11
ssg12
g13
sg14
(dp1876
g16
g17
sg18
g17
sg19
g17
sg20
g17
sg21
g17
sg22
g17
sg23
g17
sg24
g17
ssg25
I4902
sg26
(lp1877
I3
aI4
aI7
aI51
aI52
aI57
aI58
aI64
aI65
aI67
aI70
aI73
aI74
aI76
aI78
aI104
aI105
aI112
aI117
aI118
asg28
I-78
sg29
S'Vodafone'
p1878
sg31
I0
sg32
g33
sg34
g17
sg35
I8
sg36
g37
sg38
S'17:54:43'
p1879
sg40
I793
sg41
g11
sg42
S'7,0'
p1880
sg44
(lp1881
sg46
(lp1882
g48
aS'31'
p1883
aS'06'
p1884
aS'1c'
p1885
aS'62'
p1886
aS'f2'
p1887
aS'20'
p1888
aS'03'
p1889
aS'19'
p1890
aS'65'
p1891
aS'04'
p1892
aS'b9'
p1893
aS'00'
p1894
aS'00'
p1895
aS'80'
p1896
aS'1f'
p1897
aS'4b'
p1898
aS'2b'
p1899
aS'2b'
p1900
aS'2b'
p1901
aS'2b'
p1902
aS'2b'
p1903
aS'2b'
p1904
aS'2b'
p1905
asg72
(lp1906
g48
aS'49'
p1907
aS'06'
p1908
aS'1b'
p1909
aS'13'
p1910
aS'26'
p1911
aS'62'
p1912
aS'f2'
p1913
aS'20'
p1914
aS'03'
p1915
aS'19'
p1916
aS'c8'
p1917
aS'04'
p1918
aS'0a'
p1919
aS'15'
p1920
aS'65'
p1921
aS'04'
p1922
aS'b9'
p1923
aS'00'
p1924
aS'00'
p1925
aS'80'
p1926
aS'1f'
p1927
aS'01'
p1928
aS'1b'
p1929
asg97
(lp1930
g48
aS'59'
p1931
aS'06'
p1932
aS'1a'
p1933
aS'00'
p1934
aS'30'
p1935
aS'81'
p1936
aS'80'
p1937
aS'00'
p1938
aS'00'
p1939
aS'2b'
p1940
aS'25'
p1941
aS'83'
p1942
aS'0c'
p1943
aS'00'
p1944
aS'00'
p1945
aS'00'
p1946
aS'00'
p1947
aS'00'
p1948
aS'4c'
p1949
aS'88'
p1950
aS'b9'
p1951
aS'00'
p1952
aS'00'
p1953
asg122
(lp1954
g48
aS'55'
p1955
aS'06'
p1956
aS'19'
p1957
aS'00'
p1958
aS'08'
p1959
aS'4a'
p1960
aS'00'
p1961
aS'00'
p1962
aS'00'
p1963
aS'00'
p1964
aS'00'
p1965
aS'00'
p1966
aS'00'
p1967
aS'00'
p1968
aS'00'
p1969
aS'00'
p1970
aS'00'
p1971
aS'08'
p1972
aS'01'
p1973
aS'b9'
p1974
aS'00'
p1975
aS'00'
p1976
aS'83'
p1977
asg147
S'Germany'
p1978
sg149
I0
sg150
I01
sg151
I1
sba(ipyCatcherModel
BaseStationInformation
p1979
(dp1980
g6
(lp1981
sg8
(dp1982
g10
g11
ssg12
g13
sg14
(dp1983
g16
g17
sg18
g17
sg19
g17
sg20
g17
sg21
g17
sg22
g17
sg23
g17
sg24
g17
ssg25
I21752
sg26
(lp1984
I2
aI8
aI52
aI53
aI57
aI58
aI64
aI74
aI76
aI78
aI104
aI107
aI108
aI118
aI120
aI121
asg28
I-87
sg29
S'Vodafone'
p1985
sg31
I0
sg32
g33
sg34
g17
sg35
I117
sg36
g37
sg38
S'17:54:45'
p1986
sg40
I793
sg41
g11
sg42
S'3,6'
p1987
sg44
(lp1988
sg46
(lp1989
g48
aS'31'
p1990
aS'06'
p1991
aS'1c'
p1992
aS'62'
p1993
aS'f2'
p1994
aS'20'
p1995
aS'03'
p1996
aS'19'
p1997
aS'65'
p1998
aS'04'
p1999
aS'b9'
p2000
aS'00'
p2001
aS'00'
p2002
aS'80'
p2003
aS'1f'
p2004
aS'4b'
p2005
aS'2b'
p2006
aS'2b'
p2007
aS'2b'
p2008
aS'2b'
p2009
aS'2b'
p2010
aS'2b'
p2011
aS'2b'
p2012
asg72
(lp2013
g48
aS'49'
p2014
aS'06'
p2015
aS'1b'
p2016
aS'54'
p2017
aS'f8'
p2018
aS'62'
p2019
aS'f2'
p2020
aS'20'
p2021
aS'03'
p2022
aS'19'
p2023
aS'c8'
p2024
aS'04'
p2025
aS'0a'
p2026
aS'15'
p2027
aS'65'
p2028
aS'04'
p2029
aS'b9'
p2030
aS'00'
p2031
aS'00'
p2032
aS'80'
p2033
aS'1f'
p2034
aS'01'
p2035
aS'1b'
p2036
asg97
(lp2037
g48
aS'59'
p2038
aS'06'
p2039
aS'1a'
p2040
aS'01'
p2041
aS'a0'
p2042
aS'0c'
p2043
aS'80'
p2044
aS'00'
p2045
aS'00'
p2046
aS'2a'
p2047
aS'00'
p2048
aS'83'
p2049
aS'18'
p2050
aS'00'
p2051
aS'00'
p2052
aS'00'
p2053
aS'00'
p2054
aS'00'
p2055
aS'82'
p2056
aS'88'
p2057
aS'b9'
p2058
aS'00'
p2059
aS'00'
p2060
asg122
(lp2061
g48
aS'55'
p2062
aS'06'
p2063
aS'19'
p2064
aS'00'
p2065
aS'00'
p2066
aS'00'
p2067
aS'00'
p2068
aS'00'
p2069
aS'00'
p2070
aS'00'
p2071
aS'00'
p2072
aS'02'
p2073
aS'00'
p2074
aS'00'
p2075
aS'00'
p2076
aS'00'
p2077
aS'00'
p2078
aS'08'
p2079
aS'0a'
p2080
aS'b9'
p2081
aS'00'
p2082
aS'00'
p2083
aS'83'
p2084
asg147
S'Germany'
p2085
sg149
I0
sg150
I01
sg151
I1
sba(ipyCatcherModel
BaseStationInformation
p2086
(dp2087
g6
(lp2088
g48
aS'01'
p2089
aS'06'
p2090
aS'03'
p2091
aS'cf'
p2092
aS'f2'
p2093
aS'80'
p2094
aS'00'
p2095
aS'00'
p2096
aS'00'
p2097
aS'00'
p2098
aS'00'
p2099
aS'00'
p2100
aS'00'
p2101
aS'00'
p2102
aS'00'
p2103
aS'00'
p2104
aS'00'
p2105
aS'00'
p2106
aS'00'
p2107
aS'2b'
p2108
aS'2b'
p2109
aS'2b'
p2110
aS'2b'
p2111
asg8
(dp2112
g10
g11
ssg12
g13
sg14
(dp2113
g16
g17
sg18
g17
sg19
g17
sg20
g17
sg21
g17
sg22
g17
sg23
g17
sg24
g17
ssg25
I40008
sg26
(lp2114
I777
aI786
aI791
aI805
aI806
aI819
aI827
aI829
aI863
aI997
asg28
I-76
sg29
S'E-Plus'
p2115
sg31
I0
sg32
g33
sg34
g17
sg35
I821
sg36
g37
sg38
S'17:54:51'
p2116
sg40
I588
sg41
g11
sg42
S'3,0'
p2117
sg44
(lp2118
sg46
(lp2119
g48
aS'31'
p2120
aS'06'
p2121
aS'1c'
p2122
aS'62'
p2123
aS'f2'
p2124
aS'30'
p2125
aS'02'
p2126
aS'4c'
p2127
aS'60'
p2128
aS'43'
p2129
aS'a4'
p2130
aS'00'
p2131
aS'00'
p2132
aS'09'
p2133
aS'2b'
p2134
aS'2b'
p2135
aS'2b'
p2136
aS'2b'
p2137
aS'2b'
p2138
aS'2b'
p2139
aS'2b'
p2140
aS'2b'
p2141
aS'2b'
p2142
asg72
(lp2143
g48
aS'49'
p2144
aS'06'
p2145
aS'1b'
p2146
aS'9c'
p2147
aS'48'
p2148
aS'62'
p2149
aS'f2'
p2150
aS'30'
p2151
aS'02'
p2152
aS'4c'
p2153
aS'c8'
p2154
aS'05'
p2155
aS'78'
p2156
aS'09'
p2157
aS'60'
p2158
aS'43'
p2159
aS'a4'
p2160
aS'00'
p2161
aS'00'
p2162
aS'1d'
p2163
aS'3b'
p2164
aS'2b'
p2165
aS'2b'
p2166
asg97
(lp2167
g48
aS'59'
p2168
aS'06'
p2169
aS'1a'
p2170
aS'8f'
p2171
aS'84'
p2172
aS'80'
p2173
aS'42'
p2174
aS'00'
p2175
aS'0c'
p2176
aS'00'
p2177
aS'20'
p2178
aS'28'
p2179
aS'00'
p2180
aS'00'
p2181
aS'00'
p2182
aS'02'
p2183
aS'00'
p2184
aS'00'
p2185
aS'00'
p2186
aS'08'
p2187
aS'a4'
p2188
aS'00'
p2189
aS'00'
p2190
asg122
(lp2191
g48
aS'55'
p2192
aS'06'
p2193
aS'19'
p2194
aS'8f'
p2195
aS'9a'
p2196
aS'80'
p2197
aS'02'
p2198
aS'0b'
p2199
aS'80'
p2200
aS'02'
p2201
aS'00'
p2202
aS'00'
p2203
aS'00'
p2204
aS'00'
p2205
aS'00'
p2206
aS'00'
p2207
aS'00'
p2208
aS'00'
p2209
aS'00'
p2210
aS'a4'
p2211
aS'00'
p2212
aS'00'
p2213
aS'2b'
p2214
asg147
S'Germany'
p2215
sg149
I0
sg150
I01
sg151
I1
sba(ipyCatcherModel
BaseStationInformation
p2216
(dp2217
g6
(lp2218
g48
aS'01'
p2219
aS'06'
p2220
aS'03'
p2221
aS'9f'
p2222
aS'2d'
p2223
aS'80'
p2224
aS'00'
p2225
aS'00'
p2226
aS'00'
p2227
aS'00'
p2228
aS'00'
p2229
aS'00'
p2230
aS'00'
p2231
aS'00'
p2232
aS'00'
p2233
aS'00'
p2234
aS'00'
p2235
aS'00'
p2236
aS'00'
p2237
aS'2b'
p2238
aS'2b'
p2239
aS'2b'
p2240
aS'2b'
p2241
asg8
(dp2242
g10
g11
ssg12
g13
sg14
(dp2243
g16
g17
sg18
g17
sg19
g17
sg20
g17
sg21
g17
sg22
g17
sg23
g17
sg24
g17
ssg25
I54961
sg26
(lp2244
I18
aI20
aI26
aI29
aI85
aI94
aI96
aI603
asg28
I-74
sg29
S'T-Mobile'
p2245
sg31
I0
sg32
g33
sg34
g17
sg35
I44
sg36
g37
sg38
S'17:54:59'
p2246
sg40
I21014
sg41
g11
sg42
S'7,1'
p2247
sg44
(lp2248
sg46
(lp2249
g48
aS'31'
p2250
aS'06'
p2251
aS'1c'
p2252
aS'62'
p2253
aS'f2'
p2254
aS'10'
p2255
aS'52'
p2256
aS'16'
p2257
aS'65'
p2258
aS'04'
p2259
aS'a5'
p2260
aS'00'
p2261
aS'00'
p2262
aS'1d'
p2263
aS'2b'
p2264
aS'2b'
p2265
aS'2b'
p2266
aS'2b'
p2267
aS'2b'
p2268
aS'2b'
p2269
aS'2b'
p2270
aS'2b'
p2271
aS'2b'
p2272
asg72
(lp2273
g48
aS'49'
p2274
aS'06'
p2275
aS'1b'
p2276
aS'd6'
p2277
aS'b1'
p2278
aS'62'
p2279
aS'f2'
p2280
aS'10'
p2281
aS'52'
p2282
aS'16'
p2283
aS'd8'
p2284
aS'04'
p2285
aS'1e'
p2286
aS'58'
p2287
aS'65'
p2288
aS'04'
p2289
aS'a5'
p2290
aS'00'
p2291
aS'00'
p2292
aS'1f'
p2293
aS'b3'
p2294
aS'2b'
p2295
aS'2b'
p2296
asg97
(lp2297
g48
aS'59'
p2298
aS'06'
p2299
aS'1a'
p2300
aS'10'
p2301
aS'00'
p2302
aS'00'
p2303
aS'00'
p2304
aS'a0'
p2305
aS'10'
p2306
aS'00'
p2307
aS'00'
p2308
aS'00'
p2309
aS'00'
p2310
aS'08'
p2311
aS'00'
p2312
aS'12'
p2313
aS'0a'
p2314
aS'00'
p2315
aS'00'
p2316
aS'88'
p2317
aS'a5'
p2318
aS'00'
p2319
aS'00'
p2320
asg122
(lp2321
g48
aS'55'
p2322
aS'06'
p2323
aS'19'
p2324
aS'00'
p2325
aS'00'
p2326
aS'00'
p2327
aS'00'
p2328
aS'00'
p2329
aS'40'
p2330
aS'00'
p2331
aS'00'
p2332
aS'00'
p2333
aS'00'
p2334
aS'08'
p2335
aS'00'
p2336
aS'80'
p2337
aS'00'
p2338
aS'00'
p2339
aS'00'
p2340
aS'a5'
p2341
aS'00'
p2342
aS'00'
p2343
aS'2b'
p2344
asg147
S'Germany'
p2345
sg149
I0
sg150
I01
sg151
I1
sba(ipyCatcherModel
BaseStationInformation
p2346
(dp2347
g6
(lp2348
sg8
(dp2349
g10
g11
ssg12
g13
sg14
(dp2350
g16
g17
sg18
g17
sg19
g17
sg20
g17
sg21
g17
sg22
g17
sg23
g17
sg24
g17
ssg25
I19792
sg26
(lp2351
I3
aI7
aI52
aI58
aI74
aI78
aI104
aI107
aI121
asg28
I-91
sg29
S'Vodafone'
p2352
sg31
I0
sg32
g33
sg34
g17
sg35
I115
sg36
g37
sg38
S'17:55:02'
p2353
sg40
I793
sg41
g11
sg42
S'7,3'
p2354
sg44
(lp2355
sg46
(lp2356
g48
aS'31'
p2357
aS'06'
p2358
aS'1c'
p2359
aS'62'
p2360
aS'f2'
p2361
aS'20'
p2362
aS'03'
p2363
aS'19'
p2364
aS'65'
p2365
aS'04'
p2366
aS'b9'
p2367
aS'00'
p2368
aS'00'
p2369
aS'80'
p2370
aS'1f'
p2371
aS'4b'
p2372
aS'2b'
p2373
aS'2b'
p2374
aS'2b'
p2375
aS'2b'
p2376
aS'2b'
p2377
aS'2b'
p2378
aS'2b'
p2379
asg72
(lp2380
g48
aS'49'
p2381
aS'06'
p2382
aS'1b'
p2383
aS'4d'
p2384
aS'50'
p2385
aS'62'
p2386
aS'f2'
p2387
aS'20'
p2388
aS'03'
p2389
aS'19'
p2390
aS'c8'
p2391
aS'04'
p2392
aS'0a'
p2393
aS'15'
p2394
aS'65'
p2395
aS'04'
p2396
aS'b9'
p2397
aS'00'
p2398
aS'00'
p2399
aS'80'
p2400
aS'1f'
p2401
aS'01'
p2402
aS'1b'
p2403
asg97
(lp2404
g48
aS'59'
p2405
aS'06'
p2406
aS'1a'
p2407
aS'01'
p2408
aS'00'
p2409
aS'04'
p2410
aS'80'
p2411
aS'00'
p2412
aS'00'
p2413
aS'22'
p2414
aS'00'
p2415
aS'02'
p2416
aS'08'
p2417
aS'00'
p2418
aS'00'
p2419
aS'00'
p2420
aS'00'
p2421
aS'00'
p2422
aS'44'
p2423
aS'88'
p2424
aS'b9'
p2425
aS'00'
p2426
aS'00'
p2427
asg122
(lp2428
g48
aS'55'
p2429
aS'06'
p2430
aS'19'
p2431
aS'00'
p2432
aS'00'
p2433
aS'00'
p2434
aS'80'
p2435
aS'00'
p2436
aS'00'
p2437
aS'00'
p2438
aS'00'
p2439
aS'00'
p2440
aS'00'
p2441
aS'00'
p2442
aS'00'
p2443
aS'00'
p2444
aS'00'
p2445
aS'02'
p2446
aS'04'
p2447
aS'b9'
p2448
aS'00'
p2449
aS'00'
p2450
aS'83'
p2451
asg147
S'Germany'
p2452
sg149
I0
sg150
I01
sg151
I1
sba(ipyCatcherModel
BaseStationInformation
p2453
(dp2454
g6
(lp2455
g48
aS'01'
p2456
aS'06'
p2457
aS'03'
p2458
aS'df'
p2459
aS'84'
p2460
aS'80'
p2461
aS'40'
p2462
aS'00'
p2463
aS'04'
p2464
aS'00'
p2465
aS'1a'
p2466
aS'70'
p2467
aS'00'
p2468
aS'00'
p2469
aS'00'
p2470
aS'00'
p2471
aS'00'
p2472
aS'00'
p2473
aS'00'
p2474
aS'2b'
p2475
aS'2b'
p2476
aS'2b'
p2477
aS'2b'
p2478
asg8
(dp2479
g10
g11
ssg12
g13
sg14
(dp2480
g16
g17
sg18
g17
sg19
g17
sg20
g17
sg21
g17
sg22
g17
sg23
g17
sg24
g17
ssg25
I55248
sg26
(lp2481
I777
aI786
aI806
aI820
aI821
aI823
aI826
aI827
aI828
aI982
aI986
aI990
asg28
I-95
sg29
S'E-Plus'
p2482
sg31
I0
sg32
g33
sg34
g17
sg35
I997
sg36
g37
sg38
S'17:55:07'
p2483
sg40
I588
sg41
g11
sg42
S'3,3'
p2484
sg44
(lp2485
sg46
(lp2486
g48
aS'31'
p2487
aS'06'
p2488
aS'1c'
p2489
aS'62'
p2490
aS'f2'
p2491
aS'30'
p2492
aS'02'
p2493
aS'4c'
p2494
aS'65'
p2495
aS'03'
p2496
aS'94'
p2497
aS'00'
p2498
aS'00'
p2499
aS'89'
p2500
aS'1f'
p2501
aS'43'
p2502
aS'2b'
p2503
aS'2b'
p2504
aS'2b'
p2505
aS'2b'
p2506
aS'2b'
p2507
aS'2b'
p2508
aS'2b'
p2509
asg72
(lp2510
g48
aS'49'
p2511
aS'06'
p2512
aS'1b'
p2513
aS'd7'
p2514
aS'd0'
p2515
aS'62'
p2516
aS'f2'
p2517
aS'30'
p2518
aS'02'
p2519
aS'4c'
p2520
aS'c9'
p2521
aS'05'
p2522
aS'78'
p2523
aS'46'
p2524
aS'65'
p2525
aS'03'
p2526
aS'94'
p2527
aS'00'
p2528
aS'00'
p2529
aS'89'
p2530
aS'1f'
p2531
aS'40'
p2532
aS'4b'
p2533
asg97
(lp2534
g48
aS'59'
p2535
aS'06'
p2536
aS'1a'
p2537
aS'9b'
p2538
aS'eb'
p2539
aS'04'
p2540
aS'7c'
p2541
aS'0e'
p2542
aS'00'
p2543
aS'00'
p2544
aS'00'
p2545
aS'00'
p2546
aS'00'
p2547
aS'00'
p2548
aS'00'
p2549
aS'00'
p2550
aS'00'
p2551
aS'00'
p2552
aS'00'
p2553
aS'08'
p2554
aS'94'
p2555
aS'00'
p2556
aS'00'
p2557
asg122
(lp2558
g48
aS'55'
p2559
aS'06'
p2560
aS'19'
p2561
aS'8f'
p2562
aS'f2'
p2563
aS'80'
p2564
aS'00'
p2565
aS'00'
p2566
aS'00'
p2567
aS'00'
p2568
aS'00'
p2569
aS'00'
p2570
aS'00'
p2571
aS'00'
p2572
aS'00'
p2573
aS'00'
p2574
aS'00'
p2575
aS'00'
p2576
aS'00'
p2577
aS'94'
p2578
aS'00'
p2579
aS'00'
p2580
aS'2b'
p2581
asg147
S'Germany'
p2582
sg149
I0
sg150
I01
sg151
I1
sba(ipyCatcherModel
BaseStationInformation
p2583
(dp2584
g6
(lp2585
g48
aS'01'
p2586
aS'06'
p2587
aS'03'
p2588
aS'cf'
p2589
aS'6a'
p2590
aS'80'
p2591
aS'00'
p2592
aS'28'
p2593
aS'00'
p2594
aS'00'
p2595
aS'00'
p2596
aS'00'
p2597
aS'00'
p2598
aS'00'
p2599
aS'00'
p2600
aS'00'
p2601
aS'00'
p2602
aS'00'
p2603
aS'00'
p2604
aS'2b'
p2605
aS'2b'
p2606
aS'2b'
p2607
aS'2b'
p2608
asg8
(dp2609
g10
g11
ssg12
g13
sg14
(dp2610
g16
g17
sg18
g17
sg19
g17
sg20
g17
sg21
g17
sg22
g17
sg23
g17
sg24
g17
ssg25
I19762
sg26
(lp2611
I3
aI4
aI6
aI8
aI58
aI64
aI65
aI70
aI79
aI112
aI116
aI121
aI725
aI743
aI745
asg28
I-84
sg29
S'Vodafone'
p2612
sg31
I0
sg32
g33
sg34
g17
sg35
I73
sg36
g37
sg38
S'17:55:14'
p2613
sg40
I793
sg41
g11
sg42
S'3,3'
p2614
sg44
(lp2615
sg46
(lp2616
g48
aS'31'
p2617
aS'06'
p2618
aS'1c'
p2619
aS'62'
p2620
aS'f2'
p2621
aS'20'
p2622
aS'03'
p2623
aS'19'
p2624
aS'65'
p2625
aS'04'
p2626
aS'b9'
p2627
aS'00'
p2628
aS'00'
p2629
aS'80'
p2630
aS'1f'
p2631
aS'4b'
p2632
aS'2b'
p2633
aS'2b'
p2634
aS'2b'
p2635
aS'2b'
p2636
aS'2b'
p2637
aS'2b'
p2638
aS'2b'
p2639
asg72
(lp2640
g48
aS'49'
p2641
aS'06'
p2642
aS'1b'
p2643
aS'4d'
p2644
aS'32'
p2645
aS'62'
p2646
aS'f2'
p2647
aS'20'
p2648
aS'03'
p2649
aS'19'
p2650
aS'c8'
p2651
aS'04'
p2652
aS'0a'
p2653
aS'15'
p2654
aS'65'
p2655
aS'04'
p2656
aS'b9'
p2657
aS'00'
p2658
aS'00'
p2659
aS'80'
p2660
aS'1f'
p2661
aS'41'
p2662
aS'1b'
p2663
asg97
(lp2664
g48
aS'59'
p2665
aS'06'
p2666
aS'1a'
p2667
aS'01'
p2668
aS'08'
p2669
aS'80'
p2670
aS'00'
p2671
aS'00'
p2672
aS'00'
p2673
aS'40'
p2674
aS'21'
p2675
aS'82'
p2676
aS'00'
p2677
aS'00'
p2678
aS'00'
p2679
aS'00'
p2680
aS'00'
p2681
aS'00'
p2682
aS'ac'
p2683
aS'88'
p2684
aS'b9'
p2685
aS'00'
p2686
aS'00'
p2687
asg122
(lp2688
g48
aS'55'
p2689
aS'06'
p2690
aS'19'
p2691
aS'00'
p2692
aS'00'
p2693
aS'00'
p2694
aS'00'
p2695
aS'00'
p2696
aS'00'
p2697
aS'24'
p2698
aS'0a'
p2699
aS'10'
p2700
aS'80'
p2701
aS'00'
p2702
aS'00'
p2703
aS'00'
p2704
aS'00'
p2705
aS'00'
p2706
aS'00'
p2707
aS'b9'
p2708
aS'00'
p2709
aS'00'
p2710
aS'83'
p2711
asg147
S'Germany'
p2712
sg149
I0
sg150
I01
sg151
I1
sba(ipyCatcherModel
BaseStationInformation
p2713
(dp2714
g6
(lp2715
g48
aS'01'
p2716
aS'06'
p2717
aS'03'
p2718
aS'cf'
p2719
aS'6a'
p2720
aS'c0'
p2721
aS'00'
p2722
aS'20'
p2723
aS'00'
p2724
aS'00'
p2725
aS'00'
p2726
aS'00'
p2727
aS'00'
p2728
aS'00'
p2729
aS'00'
p2730
aS'00'
p2731
aS'00'
p2732
aS'00'
p2733
aS'00'
p2734
aS'2b'
p2735
aS'2b'
p2736
aS'2b'
p2737
aS'2b'
p2738
asg8
(dp2739
g10
g11
ssg12
g13
sg14
(dp2740
g16
g17
sg18
g17
sg19
g17
sg20
g17
sg21
g17
sg22
g17
sg23
g17
sg24
g17
ssg25
I19753
sg26
(lp2741
I3
aI4
aI8
aI51
aI65
aI68
aI70
aI78
aI112
aI118
aI120
aI725
aI726
aI743
asg28
I-91
sg29
S'Vodafone'
p2742
sg31
I0
sg32
g33
sg34
g17
sg35
I67
sg36
g37
sg38
S'17:55:24'
p2743
sg40
I793
sg41
g11
sg42
S'3,2'
p2744
sg44
(lp2745
sg46
(lp2746
g48
aS'31'
p2747
aS'06'
p2748
aS'1c'
p2749
aS'62'
p2750
aS'f2'
p2751
aS'20'
p2752
aS'03'
p2753
aS'19'
p2754
aS'65'
p2755
aS'04'
p2756
aS'b9'
p2757
aS'00'
p2758
aS'00'
p2759
aS'80'
p2760
aS'1f'
p2761
aS'4b'
p2762
aS'2b'
p2763
aS'2b'
p2764
aS'2b'
p2765
aS'2b'
p2766
aS'2b'
p2767
aS'2b'
p2768
aS'2b'
p2769
asg72
(lp2770
g48
aS'49'
p2771
aS'06'
p2772
aS'1b'
p2773
aS'4d'
p2774
aS'29'
p2775
aS'62'
p2776
aS'f2'
p2777
aS'20'
p2778
aS'03'
p2779
aS'19'
p2780
aS'c8'
p2781
aS'04'
p2782
aS'0a'
p2783
aS'15'
p2784
aS'65'
p2785
aS'04'
p2786
aS'b9'
p2787
aS'00'
p2788
aS'00'
p2789
aS'80'
p2790
aS'1f'
p2791
aS'41'
p2792
aS'1b'
p2793
asg97
(lp2794
g48
aS'59'
p2795
aS'06'
p2796
aS'1a'
p2797
aS'00'
p2798
aS'a0'
p2799
aS'80'
p2800
aS'00'
p2801
aS'00'
p2802
aS'00'
p2803
aS'20'
p2804
aS'29'
p2805
aS'00'
p2806
aS'04'
p2807
aS'00'
p2808
aS'00'
p2809
aS'00'
p2810
aS'00'
p2811
aS'00'
p2812
aS'8c'
p2813
aS'88'
p2814
aS'b9'
p2815
aS'00'
p2816
aS'00'
p2817
asg122
(lp2818
g48
aS'55'
p2819
aS'06'
p2820
aS'19'
p2821
aS'00'
p2822
aS'00'
p2823
aS'00'
p2824
aS'00'
p2825
aS'00'
p2826
aS'00'
p2827
aS'15'
p2828
aS'00'
p2829
aS'40'
p2830
aS'00'
p2831
aS'00'
p2832
aS'00'
p2833
aS'00'
p2834
aS'00'
p2835
aS'00'
p2836
aS'00'
p2837
aS'b9'
p2838
aS'00'
p2839
aS'00'
p2840
aS'83'
p2841
asg147
S'Germany'
p2842
sg149
I0
sg150
I01
sg151
I1
sba(ipyCatcherModel
BaseStationInformation
p2843
(dp2844
g6
(lp2845
g48
aS'49'
p2846
aS'06'
p2847
aS'03'
p2848
aS'cf'
p2849
aS'f7'
p2850
aS'a0'
p2851
aS'00'
p2852
aS'00'
p2853
aS'00'
p2854
aS'00'
p2855
aS'00'
p2856
aS'00'
p2857
aS'00'
p2858
aS'00'
p2859
aS'00'
p2860
aS'00'
p2861
aS'00'
p2862
aS'00'
p2863
aS'00'
p2864
aS'2b'
p2865
aS'2b'
p2866
aS'2b'
p2867
aS'2b'
p2868
asg8
(dp2869
g10
g11
ssg12
g13
sg14
(dp2870
g16
g17
sg18
g17
sg19
g17
sg20
g17
sg21
g17
sg22
g17
sg23
g17
sg24
g17
ssg25
I59547
sg26
(lp2871
I661
aI669
aI677
aI681
aI696
aI700
aI704
aI705
aI711
aI719
aI1007
aI1009
asg28
I-98
sg29
S'O2'
p2872
sg31
I0
sg32
g33
sg34
g17
sg35
I702
sg36
g37
sg38
S'17:55:30'
p2873
sg40
I50945
sg41
g11
sg42
S'7,0'
p2874
sg44
(lp2875
sg46
(lp2876
g48
aS'41'
p2877
aS'06'
p2878
aS'1c'
p2879
aS'62'
p2880
aS'f2'
p2881
aS'70'
p2882
aS'c7'
p2883
aS'01'
p2884
aS'60'
p2885
aS'45'
p2886
aS'b9'
p2887
aS'00'
p2888
aS'00'
p2889
aS'64'
p2890
aS'51'
p2891
aS'02'
p2892
aS'be'
p2893
aS'51'
p2894
aS'2b'
p2895
aS'2b'
p2896
aS'2b'
p2897
aS'2b'
p2898
aS'2b'
p2899
asg72
(lp2900
g48
aS'49'
p2901
aS'06'
p2902
aS'1b'
p2903
aS'e8'
p2904
aS'9b'
p2905
aS'62'
p2906
aS'f2'
p2907
aS'70'
p2908
aS'c7'
p2909
aS'01'
p2910
aS'd0'
p2911
aS'03'
p2912
aS'28'
p2913
aS'57'
p2914
aS'60'
p2915
aS'45'
p2916
aS'b9'
p2917
aS'00'
p2918
aS'00'
p2919
aS'56'
p2920
aS'25'
p2921
aS'2b'
p2922
aS'2b'
p2923
asg97
(lp2924
g48
aS'59'
p2925
aS'06'
p2926
aS'1a'
p2927
aS'8f'
p2928
aS'4a'
p2929
aS'80'
p2930
aS'80'
p2931
aS'88'
p2932
aS'00'
p2933
aS'11'
p2934
aS'18'
p2935
aS'20'
p2936
aS'20'
p2937
aS'00'
p2938
aS'00'
p2939
aS'00'
p2940
aS'00'
p2941
aS'00'
p2942
aS'00'
p2943
aS'80'
p2944
aS'b9'
p2945
aS'00'
p2946
aS'00'
p2947
asg122
(lp2948
g48
aS'55'
p2949
aS'06'
p2950
aS'19'
p2951
aS'8f'
p2952
aS'42'
p2953
aS'88'
p2954
aS'00'
p2955
aS'00'
p2956
aS'00'
p2957
aS'00'
p2958
aS'08'
p2959
aS'00'
p2960
aS'40'
p2961
aS'02'
p2962
aS'00'
p2963
aS'00'
p2964
aS'00'
p2965
aS'00'
p2966
aS'00'
p2967
aS'b9'
p2968
aS'00'
p2969
aS'00'
p2970
aS'2b'
p2971
asg147
S'Germany'
p2972
sg149
I0
sg150
I01
sg151
I1
sba(ipyCatcherModel
BaseStationInformation
p2973
(dp2974
g6
(lp2975
g48
aS'01'
p2976
aS'06'
p2977
aS'03'
p2978
aS'8f'
p2979
aS'2e'
p2980
aS'80'
p2981
aS'00'
p2982
aS'00'
p2983
aS'00'
p2984
aS'00'
p2985
aS'00'
p2986
aS'00'
p2987
aS'00'
p2988
aS'00'
p2989
aS'00'
p2990
aS'00'
p2991
aS'00'
p2992
aS'00'
p2993
aS'00'
p2994
aS'2b'
p2995
aS'2b'
p2996
aS'2b'
p2997
aS'2b'
p2998
asg8
(dp2999
g10
g11
ssg12
g13
sg14
(dp3000
g16
g17
sg18
g17
sg19
g17
sg20
g17
sg21
g17
sg22
g17
sg23
g17
sg24
g17
ssg25
I5004
sg26
(lp3001
I20
aI21
aI23
aI25
aI30
aI40
aI47
aI49
aI82
aI83
aI123
aI605
asg28
I-97
sg29
S'T-Mobile'
p3002
sg31
I0
sg32
g33
sg34
g17
sg35
I98
sg36
g37
sg38
S'17:55:38'
p3003
sg40
I21014
sg41
g11
sg42
S'3,7'
p3004
sg44
(lp3005
sg46
(lp3006
g48
aS'31'
p3007
aS'06'
p3008
aS'1c'
p3009
aS'62'
p3010
aS'f2'
p3011
aS'10'
p3012
aS'52'
p3013
aS'16'
p3014
aS'65'
p3015
aS'04'
p3016
aS'a5'
p3017
aS'00'
p3018
aS'00'
p3019
aS'1d'
p3020
aS'2b'
p3021
aS'2b'
p3022
aS'2b'
p3023
aS'2b'
p3024
aS'2b'
p3025
aS'2b'
p3026
aS'2b'
p3027
aS'2b'
p3028
aS'2b'
p3029
asg72
(lp3030
g48
aS'49'
p3031
aS'06'
p3032
aS'1b'
p3033
aS'13'
p3034
aS'8c'
p3035
aS'62'
p3036
aS'f2'
p3037
aS'10'
p3038
aS'52'
p3039
aS'16'
p3040
aS'd8'
p3041
aS'04'
p3042
aS'1e'
p3043
aS'58'
p3044
aS'65'
p3045
aS'04'
p3046
aS'a5'
p3047
aS'00'
p3048
aS'00'
p3049
aS'1f'
p3050
aS'b3'
p3051
aS'2b'
p3052
aS'2b'
p3053
asg97
(lp3054
g48
aS'59'
p3055
aS'06'
p3056
aS'1a'
p3057
aS'04'
p3058
aS'00'
p3059
aS'00'
p3060
aS'02'
p3061
aS'00'
p3062
aS'06'
p3063
aS'00'
p3064
aS'00'
p3065
aS'00'
p3066
aS'01'
p3067
aS'40'
p3068
aS'80'
p3069
aS'21'
p3070
aS'58'
p3071
aS'00'
p3072
aS'00'
p3073
aS'88'
p3074
aS'a5'
p3075
aS'00'
p3076
aS'00'
p3077
asg122
(lp3078
g48
aS'55'
p3079
aS'06'
p3080
aS'19'
p3081
aS'00'
p3082
aS'00'
p3083
aS'00'
p3084
aS'02'
p3085
aS'40'
p3086
aS'00'
p3087
aS'00'
p3088
aS'00'
p3089
aS'00'
p3090
aS'00'
p3091
aS'00'
p3092
aS'04'
p3093
aS'08'
p3094
aS'00'
p3095
aS'00'
p3096
aS'00'
p3097
aS'a5'
p3098
aS'00'
p3099
aS'00'
p3100
aS'2b'
p3101
asg147
S'Germany'
p3102
sg149
I0
sg150
I01
sg151
I1
sba(ipyCatcherModel
BaseStationInformation
p3103
(dp3104
g6
(lp3105
g48
aS'49'
p3106
aS'06'
p3107
aS'03'
p3108
aS'cf'
p3109
aS'f8'
p3110
aS'80'
p3111
aS'00'
p3112
aS'00'
p3113
aS'00'
p3114
aS'00'
p3115
aS'00'
p3116
aS'00'
p3117
aS'00'
p3118
aS'00'
p3119
aS'00'
p3120
aS'00'
p3121
aS'00'
p3122
aS'00'
p3123
aS'00'
p3124
aS'2b'
p3125
aS'2b'
p3126
aS'2b'
p3127
aS'2b'
p3128
asg8
(dp3129
g10
g11
ssg12
g13
sg14
(dp3130
g16
g17
sg18
g17
sg19
g17
sg20
g17
sg21
g17
sg22
g17
sg23
g17
sg24
g17
ssg25
I15625
sg26
(lp3131
I669
aI672
aI677
aI681
aI701
aI702
aI705
aI1009
asg28
I-96
sg29
S'O2'
p3132
sg31
I0
sg32
g33
sg34
g17
sg35
I661
sg36
g37
sg38
S'17:55:44'
p3133
sg40
I50945
sg41
g11
sg42
S'7,1'
p3134
sg44
(lp3135
sg46
(lp3136
g48
aS'41'
p3137
aS'06'
p3138
aS'1c'
p3139
aS'62'
p3140
aS'f2'
p3141
aS'70'
p3142
aS'c7'
p3143
aS'01'
p3144
aS'60'
p3145
aS'45'
p3146
aS'b9'
p3147
aS'00'
p3148
aS'00'
p3149
aS'64'
p3150
aS'51'
p3151
aS'22'
p3152
aS'95'
p3153
aS'51'
p3154
aS'2b'
p3155
aS'2b'
p3156
aS'2b'
p3157
aS'2b'
p3158
aS'2b'
p3159
asg72
(lp3160
g48
aS'49'
p3161
aS'06'
p3162
aS'1b'
p3163
aS'3d'
p3164
aS'09'
p3165
aS'62'
p3166
aS'f2'
p3167
aS'70'
p3168
aS'c7'
p3169
aS'01'
p3170
aS'd0'
p3171
aS'03'
p3172
aS'28'
p3173
aS'57'
p3174
aS'60'
p3175
aS'45'
p3176
aS'b9'
p3177
aS'00'
p3178
aS'00'
p3179
aS'56'
p3180
aS'25'
p3181
aS'2b'
p3182
aS'2b'
p3183
asg97
(lp3184
g48
aS'59'
p3185
aS'06'
p3186
aS'1a'
p3187
aS'8f'
p3188
aS'4e'
p3189
aS'90'
p3190
aS'88'
p3191
aS'00'
p3192
aS'00'
p3193
aS'c8'
p3194
aS'00'
p3195
aS'00'
p3196
aS'00'
p3197
aS'00'
p3198
aS'00'
p3199
aS'00'
p3200
aS'00'
p3201
aS'00'
p3202
aS'00'
p3203
aS'80'
p3204
aS'b9'
p3205
aS'00'
p3206
aS'00'
p3207
asg122
(lp3208
g48
aS'55'
p3209
aS'06'
p3210
aS'19'
p3211
aS'8f'
p3212
aS'41'
p3213
aS'00'
p3214
aS'10'
p3215
aS'90'
p3216
aS'00'
p3217
aS'00'
p3218
aS'00'
p3219
aS'01'
p3220
aS'00'
p3221
aS'00'
p3222
aS'00'
p3223
aS'00'
p3224
aS'00'
p3225
aS'00'
p3226
aS'00'
p3227
aS'b9'
p3228
aS'00'
p3229
aS'00'
p3230
aS'2b'
p3231
asg147
S'Germany'
p3232
sg149
I0
sg150
I01
sg151
I1
sba(ipyCatcherModel
BaseStationInformation
p3233
(dp3234
g6
(lp3235
g48
aS'49'
p3236
aS'06'
p3237
aS'03'
p3238
aS'cf'
p3239
aS'3f'
p3240
aS'00'
p3241
aS'00'
p3242
aS'06'
p3243
aS'00'
p3244
aS'd2'
p3245
aS'00'
p3246
aS'08'
p3247
aS'07'
p3248
aS'37'
p3249
aS'4c'
p3250
aS'50'
p3251
aS'00'
p3252
aS'00'
p3253
aS'00'
p3254
aS'2b'
p3255
aS'2b'
p3256
aS'2b'
p3257
aS'2b'
p3258
asg8
(dp3259
g10
g11
ssg12
g13
sg14
(dp3260
g16
g17
sg18
g17
sg19
g17
sg20
g17
sg21
g17
sg22
g17
sg23
g17
sg24
g17
ssg25
I1221
sg26
(lp3261
I638
aI659
aI660
aI670
aI671
aI673
aI676
aI690
aI699
aI700
aI701
aI704
aI705
aI707
aI708
aI709
aI711
aI714
aI715
aI719
aI721
aI1006
aI1007
aI1009
aI1012
asg28
I-96
sg29
S'O2'
p3262
sg31
I0
sg32
g33
sg34
g17
sg35
I1003
sg36
g37
sg38
S'17:55:53'
p3263
sg40
I50945
sg41
g11
sg42
S'7,7'
p3264
sg44
(lp3265
sg46
(lp3266
g48
aS'41'
p3267
aS'06'
p3268
aS'1c'
p3269
aS'62'
p3270
aS'f2'
p3271
aS'70'
p3272
aS'c7'
p3273
aS'01'
p3274
aS'65'
p3275
aS'45'
p3276
aS'b9'
p3277
aS'00'
p3278
aS'00'
p3279
aS'64'
p3280
aS'51'
p3281
aS'e3'
p3282
aS'eb'
p3283
aS'88'
p3284
aS'1f'
p3285
aS'b2'
p3286
aS'2b'
p3287
aS'2b'
p3288
aS'2b'
p3289
asg72
(lp3290
g48
aS'49'
p3291
aS'06'
p3292
aS'1b'
p3293
aS'04'
p3294
aS'c5'
p3295
aS'62'
p3296
aS'f2'
p3297
aS'70'
p3298
aS'c7'
p3299
aS'01'
p3300
aS'd0'
p3301
aS'03'
p3302
aS'28'
p3303
aS'57'
p3304
aS'65'
p3305
aS'45'
p3306
aS'b9'
p3307
aS'00'
p3308
aS'00'
p3309
aS'88'
p3310
aS'1f'
p3311
aS'b0'
p3312
aS'53'
p3313
asg97
(lp3314
g48
aS'59'
p3315
aS'06'
p3316
aS'1a'
p3317
aS'8f'
p3318
aS'f7'
p3319
aS'52'
p3320
aS'00'
p3321
aS'00'
p3322
aS'00'
p3323
aS'00'
p3324
aS'00'
p3325
aS'00'
p3326
aS'00'
p3327
aS'00'
p3328
aS'00'
p3329
aS'00'
p3330
aS'00'
p3331
aS'00'
p3332
aS'00'
p3333
aS'80'
p3334
aS'b9'
p3335
aS'00'
p3336
aS'00'
p3337
asg122
(lp3338
g48
aS'55'
p3339
aS'06'
p3340
aS'19'
p3341
aS'8f'
p3342
aS'f5'
p3343
aS'80'
p3344
aS'00'
p3345
aS'00'
p3346
aS'00'
p3347
aS'00'
p3348
aS'00'
p3349
aS'00'
p3350
aS'00'
p3351
aS'00'
p3352
aS'00'
p3353
aS'00'
p3354
aS'00'
p3355
aS'00'
p3356
aS'00'
p3357
aS'b9'
p3358
aS'00'
p3359
aS'00'
p3360
aS'2b'
p3361
asg147
S'Germany'
p3362
sg149
I0
sg150
I01
sg151
I1
sba(ipyCatcherModel
BaseStationInformation
p3363
(dp3364
g6
(lp3365
g48
aS'01'
p3366
aS'06'
p3367
aS'03'
p3368
aS'df'
p3369
aS'6a'
p3370
aS'82'
p3371
aS'00'
p3372
aS'00'
p3373
aS'00'
p3374
aS'00'
p3375
aS'00'
p3376
aS'00'
p3377
aS'00'
p3378
aS'00'
p3379
aS'00'
p3380
aS'00'
p3381
aS'00'
p3382
aS'00'
p3383
aS'00'
p3384
aS'2b'
p3385
aS'2b'
p3386
aS'2b'
p3387
aS'2b'
p3388
asg8
(dp3389
g10
g11
ssg12
g13
sg14
(dp3390
g16
g17
sg18
g17
sg19
g17
sg20
g17
sg21
g17
sg22
g17
sg23
g17
sg24
g17
ssg25
I21782
sg26
(lp3391
I1
aI7
aI52
aI57
aI60
aI64
aI66
aI74
aI79
aI108
aI113
aI115
aI117
aI119
aI121
aI725
aI731
asg28
I-95
sg29
S'Vodafone'
p3392
sg31
I0
sg32
g33
sg34
g17
sg35
I107
sg36
g37
sg38
S'17:55:59'
p3393
sg40
I793
sg41
g11
sg42
S'7,2'
p3394
sg44
(lp3395
sg46
(lp3396
g48
aS'31'
p3397
aS'06'
p3398
aS'1c'
p3399
aS'62'
p3400
aS'f2'
p3401
aS'20'
p3402
aS'03'
p3403
aS'19'
p3404
aS'65'
p3405
aS'04'
p3406
aS'b9'
p3407
aS'00'
p3408
aS'00'
p3409
aS'80'
p3410
aS'1f'
p3411
aS'4b'
p3412
aS'2b'
p3413
aS'2b'
p3414
aS'2b'
p3415
aS'2b'
p3416
aS'2b'
p3417
aS'2b'
p3418
aS'2b'
p3419
asg72
(lp3420
g48
aS'49'
p3421
aS'06'
p3422
aS'1b'
p3423
aS'55'
p3424
aS'16'
p3425
aS'62'
p3426
aS'f2'
p3427
aS'20'
p3428
aS'03'
p3429
aS'19'
p3430
aS'c8'
p3431
aS'04'
p3432
aS'0a'
p3433
aS'15'
p3434
aS'65'
p3435
aS'04'
p3436
aS'b9'
p3437
aS'00'
p3438
aS'00'
p3439
aS'80'
p3440
aS'1f'
p3441
aS'41'
p3442
aS'1b'
p3443
asg97
(lp3444
g48
aS'59'
p3445
aS'06'
p3446
aS'1a'
p3447
aS'11'
p3448
aS'55'
p3449
aS'08'
p3450
aS'00'
p3451
aS'00'
p3452
aS'00'
p3453
aS'42'
p3454
aS'02'
p3455
aS'89'
p3456
aS'08'
p3457
aS'00'
p3458
aS'00'
p3459
aS'00'
p3460
aS'00'
p3461
aS'00'
p3462
aS'41'
p3463
aS'88'
p3464
aS'b9'
p3465
aS'00'
p3466
aS'00'
p3467
asg122
(lp3468
g48
aS'55'
p3469
aS'06'
p3470
aS'19'
p3471
aS'00'
p3472
aS'00'
p3473
aS'01'
p3474
aS'00'
p3475
aS'00'
p3476
aS'00'
p3477
aS'00'
p3478
aS'90'
p3479
aS'40'
p3480
aS'00'
p3481
aS'00'
p3482
aS'00'
p3483
aS'00'
p3484
aS'00'
p3485
aS'00'
p3486
aS'00'
p3487
aS'b9'
p3488
aS'00'
p3489
aS'00'
p3490
aS'83'
p3491
asg147
S'Germany'
p3492
sg149
I0
sg150
I01
sg151
I1
sba(ipyCatcherModel
BaseStationInformation
p3493
(dp3494
g6
(lp3495
g48
aS'49'
p3496
aS'06'
p3497
aS'03'
p3498
aS'cf'
p3499
aS'f6'
p3500
aS'14'
p3501
aS'00'
p3502
aS'00'
p3503
aS'00'
p3504
aS'00'
p3505
aS'00'
p3506
aS'00'
p3507
aS'00'
p3508
aS'00'
p3509
aS'00'
p3510
aS'00'
p3511
aS'00'
p3512
aS'00'
p3513
aS'00'
p3514
aS'2b'
p3515
aS'2b'
p3516
aS'2b'
p3517
aS'2b'
p3518
asg8
(dp3519
g10
g11
ssg12
g13
sg14
(dp3520
g16
g17
sg18
g17
sg19
g17
sg20
g17
sg21
g17
sg22
g17
sg23
g17
sg24
g17
ssg25
I19547
sg26
(lp3521
I661
aI669
aI677
aI700
aI702
aI1004
aI1007
aI1009
asg28
I-100
sg29
S'O2'
p3522
sg31
I0
sg32
g33
sg34
g17
sg35
I681
sg36
g37
sg38
S'17:56:03'
p3523
sg40
I50945
sg41
g11
sg42
S'7,6'
p3524
sg44
(lp3525
sg46
(lp3526
g48
aS'41'
p3527
aS'06'
p3528
aS'1c'
p3529
aS'62'
p3530
aS'f2'
p3531
aS'70'
p3532
aS'c7'
p3533
aS'01'
p3534
aS'60'
p3535
aS'45'
p3536
aS'b9'
p3537
aS'00'
p3538
aS'00'
p3539
aS'64'
p3540
aS'51'
p3541
aS'c2'
p3542
aS'a9'
p3543
aS'51'
p3544
aS'2b'
p3545
aS'2b'
p3546
aS'2b'
p3547
aS'2b'
p3548
aS'2b'
p3549
asg72
(lp3550
g48
aS'49'
p3551
aS'06'
p3552
aS'1b'
p3553
aS'4c'
p3554
aS'5b'
p3555
aS'62'
p3556
aS'f2'
p3557
aS'70'
p3558
aS'c7'
p3559
aS'01'
p3560
aS'd0'
p3561
aS'03'
p3562
aS'28'
p3563
aS'57'
p3564
aS'60'
p3565
aS'45'
p3566
aS'b9'
p3567
aS'00'
p3568
aS'00'
p3569
aS'56'
p3570
aS'25'
p3571
aS'2b'
p3572
aS'2b'
p3573
asg97
(lp3574
g48
aS'59'
p3575
aS'06'
p3576
aS'1a'
p3577
aS'8f'
p3578
aS'4a'
p3579
aS'80'
p3580
aS'80'
p3581
aS'80'
p3582
aS'00'
p3583
aS'01'
p3584
aS'40'
p3585
aS'00'
p3586
aS'00'
p3587
aS'00'
p3588
aS'00'
p3589
aS'00'
p3590
aS'00'
p3591
aS'00'
p3592
aS'00'
p3593
aS'80'
p3594
aS'b9'
p3595
aS'00'
p3596
aS'00'
p3597
asg122
(lp3598
g48
aS'55'
p3599
aS'06'
p3600
aS'19'
p3601
aS'8f'
p3602
aS'4c'
p3603
aS'80'
p3604
aS'02'
p3605
aS'80'
p3606
aS'00'
p3607
aS'00'
p3608
aS'20'
p3609
aS'08'
p3610
aS'00'
p3611
aS'00'
p3612
aS'00'
p3613
aS'00'
p3614
aS'00'
p3615
aS'00'
p3616
aS'00'
p3617
aS'b9'
p3618
aS'00'
p3619
aS'00'
p3620
aS'2b'
p3621
asg147
S'Germany'
p3622
sg149
I0
sg150
I01
sg151
I1
sba(ipyCatcherModel
BaseStationInformation
p3623
(dp3624
g6
(lp3625
sg8
(dp3626
g10
g21
ssg12
g13
sg14
(dp3627
g16
g17
sg18
g17
sg19
S'Ignore'
p3628
sg20
g17
sg21
S'Critical'
p3629
sg22
g17
sg23
g17
sg24
g17
ssg25
I7091
sg26
(lp3630
I956
aI963
asg28
I-97
sg29
S'DB Systel GSM-R'
p3631
sg31
I0
sg32
g33
sg34
g3629
sg35
I958
sg36
g37
sg38
S'17:56:07'
p3632
sg40
I6052
sg41
g11
sg42
S'7,2'
p3633
sg44
(lp3634
sg46
(lp3635
g48
aS'31'
p3636
aS'06'
p3637
aS'1c'
p3638
aS'62'
p3639
aS'f2'
p3640
aS'01'
p3641
aS'17'
p3642
aS'a4'
p3643
aS'42'
p3644
aS'47'
p3645
aS'69'
p3646
aS'00'
p3647
aS'00'
p3648
aS'2b'
p3649
aS'2b'
p3650
aS'2b'
p3651
aS'2b'
p3652
aS'2b'
p3653
aS'2b'
p3654
aS'2b'
p3655
aS'2b'
p3656
aS'2b'
p3657
aS'2b'
p3658
asg72
(lp3659
g48
aS'49'
p3660
aS'06'
p3661
aS'1b'
p3662
aS'1b'
p3663
aS'b3'
p3664
aS'62'
p3665
aS'f2'
p3666
aS'01'
p3667
aS'17'
p3668
aS'a4'
p3669
aS'd0'
p3670
aS'00'
p3671
aS'3c'
p3672
aS'04'
p3673
aS'42'
p3674
aS'47'
p3675
aS'69'
p3676
aS'00'
p3677
aS'00'
p3678
aS'2a'
p3679
aS'ab'
p3680
aS'2b'
p3681
aS'2b'
p3682
asg97
(lp3683
g48
aS'59'
p3684
aS'06'
p3685
aS'1a'
p3686
aS'8f'
p3687
aS'de'
p3688
aS'01'
p3689
aS'00'
p3690
aS'00'
p3691
aS'00'
p3692
aS'00'
p3693
aS'00'
p3694
aS'00'
p3695
aS'00'
p3696
aS'00'
p3697
aS'00'
p3698
aS'00'
p3699
aS'00'
p3700
aS'00'
p3701
aS'00'
p3702
aS'80'
p3703
aS'69'
p3704
aS'00'
p3705
aS'00'
p3706
asg122
(lp3707
g48
aS'55'
p3708
aS'06'
p3709
aS'19'
p3710
aS'8f'
p3711
aS'df'
p3712
aS'00'
p3713
aS'02'
p3714
aS'00'
p3715
aS'00'
p3716
aS'00'
p3717
aS'00'
p3718
aS'00'
p3719
aS'00'
p3720
aS'00'
p3721
aS'00'
p3722
aS'00'
p3723
aS'00'
p3724
aS'00'
p3725
aS'00'
p3726
aS'69'
p3727
aS'00'
p3728
aS'00'
p3729
aS'83'
p3730
asg147
S'Germany'
p3731
sg149
I0
sg150
I01
sg151
I1
sba(ipyCatcherModel
BaseStationInformation
p3732
(dp3733
g6
(lp3734
g48
aS'01'
p3735
aS'06'
p3736
aS'03'
p3737
aS'cf'
p3738
aS'6b'
p3739
aS'00'
p3740
aS'00'
p3741
aS'00'
p3742
aS'00'
p3743
aS'00'
p3744
aS'00'
p3745
aS'00'
p3746
aS'00'
p3747
aS'00'
p3748
aS'00'
p3749
aS'00'
p3750
aS'00'
p3751
aS'00'
p3752
aS'00'
p3753
aS'2b'
p3754
aS'2b'
p3755
aS'2b'
p3756
aS'2b'
p3757
asg8
(dp3758
g10
g11
ssg12
g13
sg14
(dp3759
g16
g17
sg18
g17
sg19
g17
sg20
g17
sg21
g17
sg22
g17
sg23
g17
sg24
g17
ssg25
I17621
sg26
(lp3760
I2
aI9
aI51
aI57
aI58
aI59
aI66
aI68
aI69
aI71
aI74
aI75
aI78
aI111
aI117
aI120
aI121
aI726
asg28
I-96
sg29
S'Vodafone'
p3761
sg31
I0
sg32
g33
sg34
g17
sg35
I62
sg36
g37
sg38
S'17:56:11'
p3762
sg40
I793
sg41
g11
sg42
S'7,5'
p3763
sg44
(lp3764
sg46
(lp3765
g48
aS'31'
p3766
aS'06'
p3767
aS'1c'
p3768
aS'62'
p3769
aS'f2'
p3770
aS'20'
p3771
aS'03'
p3772
aS'19'
p3773
aS'65'
p3774
aS'04'
p3775
aS'b9'
p3776
aS'00'
p3777
aS'00'
p3778
aS'80'
p3779
aS'1f'
p3780
aS'4b'
p3781
aS'2b'
p3782
aS'2b'
p3783
aS'2b'
p3784
aS'2b'
p3785
aS'2b'
p3786
aS'2b'
p3787
aS'2b'
p3788
asg72
(lp3789
g48
aS'49'
p3790
aS'06'
p3791
aS'1b'
p3792
aS'44'
p3793
aS'd5'
p3794
aS'62'
p3795
aS'f2'
p3796
aS'20'
p3797
aS'03'
p3798
aS'19'
p3799
aS'c8'
p3800
aS'04'
p3801
aS'0a'
p3802
aS'15'
p3803
aS'65'
p3804
aS'04'
p3805
aS'b9'
p3806
aS'00'
p3807
aS'00'
p3808
aS'80'
p3809
aS'1f'
p3810
aS'41'
p3811
aS'1b'
p3812
asg97
(lp3813
g48
aS'59'
p3814
aS'06'
p3815
aS'1a'
p3816
aS'01'
p3817
aS'90'
p3818
aS'40'
p3819
aS'00'
p3820
aS'00'
p3821
aS'00'
p3822
aS'26'
p3823
aS'5a'
p3824
aS'07'
p3825
aS'04'
p3826
aS'00'
p3827
aS'00'
p3828
aS'00'
p3829
aS'00'
p3830
aS'01'
p3831
aS'02'
p3832
aS'88'
p3833
aS'b9'
p3834
aS'00'
p3835
aS'00'
p3836
asg122
(lp3837
g48
aS'55'
p3838
aS'06'
p3839
aS'19'
p3840
aS'00'
p3841
aS'00'
p3842
aS'00'
p3843
aS'00'
p3844
aS'00'
p3845
aS'00'
p3846
aS'90'
p3847
aS'04'
p3848
aS'80'
p3849
aS'90'
p3850
aS'00'
p3851
aS'00'
p3852
aS'00'
p3853
aS'00'
p3854
aS'00'
p3855
aS'00'
p3856
aS'b9'
p3857
aS'00'
p3858
aS'00'
p3859
aS'83'
p3860
asg147
S'Germany'
p3861
sg149
I0
sg150
I01
sg151
I1
sba(ipyCatcherModel
BaseStationInformation
p3862
(dp3863
g6
(lp3864
g48
aS'01'
p3865
aS'06'
p3866
aS'03'
p3867
aS'df'
p3868
aS'6a'
p3869
aS'c0'
p3870
aS'00'
p3871
aS'20'
p3872
aS'00'
p3873
aS'00'
p3874
aS'00'
p3875
aS'00'
p3876
aS'00'
p3877
aS'00'
p3878
aS'00'
p3879
aS'00'
p3880
aS'00'
p3881
aS'00'
p3882
aS'00'
p3883
aS'2b'
p3884
aS'2b'
p3885
aS'2b'
p3886
aS'2b'
p3887
asg8
(dp3888
g10
g11
ssg12
g13
sg14
(dp3889
g16
g17
sg18
g17
sg19
g17
sg20
g17
sg21
g17
sg22
g17
sg23
g17
sg24
g17
ssg25
I6922
sg26
(lp3890
I4
aI8
aI51
aI64
aI65
aI67
aI70
aI73
aI74
aI79
aI120
aI725
aI726
aI743
asg28
I-98
sg29
S'Vodafone'
p3891
sg31
I0
sg32
g33
sg34
g17
sg35
I112
sg36
g37
sg38
S'17:56:22'
p3892
sg40
I793
sg41
g11
sg42
S'3,4'
p3893
sg44
(lp3894
sg46
(lp3895
g48
aS'31'
p3896
aS'06'
p3897
aS'1c'
p3898
aS'62'
p3899
aS'f2'
p3900
aS'20'
p3901
aS'03'
p3902
aS'19'
p3903
aS'65'
p3904
aS'04'
p3905
aS'b9'
p3906
aS'00'
p3907
aS'00'
p3908
aS'80'
p3909
aS'1f'
p3910
aS'4b'
p3911
aS'2b'
p3912
aS'2b'
p3913
aS'2b'
p3914
aS'2b'
p3915
aS'2b'
p3916
aS'2b'
p3917
aS'2b'
p3918
asg72
(lp3919
g48
aS'49'
p3920
aS'06'
p3921
aS'1b'
p3922
aS'1b'
p3923
aS'0a'
p3924
aS'62'
p3925
aS'f2'
p3926
aS'20'
p3927
aS'03'
p3928
aS'19'
p3929
aS'c8'
p3930
aS'04'
p3931
aS'0a'
p3932
aS'15'
p3933
aS'65'
p3934
aS'04'
p3935
aS'b9'
p3936
aS'00'
p3937
aS'00'
p3938
aS'80'
p3939
aS'1f'
p3940
aS'41'
p3941
aS'1b'
p3942
asg97
(lp3943
g48
aS'59'
p3944
aS'06'
p3945
aS'1a'
p3946
aS'10'
p3947
aS'80'
p3948
aS'00'
p3949
aS'00'
p3950
aS'00'
p3951
aS'00'
p3952
aS'43'
p3953
aS'25'
p3954
aS'80'
p3955
aS'04'
p3956
aS'00'
p3957
aS'00'
p3958
aS'00'
p3959
aS'00'
p3960
aS'00'
p3961
aS'88'
p3962
aS'88'
p3963
aS'b9'
p3964
aS'00'
p3965
aS'00'
p3966
asg122
(lp3967
g48
aS'55'
p3968
aS'06'
p3969
aS'19'
p3970
aS'00'
p3971
aS'20'
p3972
aS'14'
p3973
aS'00'
p3974
aS'00'
p3975
aS'00'
p3976
aS'00'
p3977
aS'10'
p3978
aS'00'
p3979
aS'00'
p3980
aS'00'
p3981
aS'00'
p3982
aS'00'
p3983
aS'00'
p3984
aS'00'
p3985
aS'00'
p3986
aS'b9'
p3987
aS'00'
p3988
aS'00'
p3989
aS'83'
p3990
asg147
S'Germany'
p3991
sg149
I0
sg150
I01
sg151
I1
sba(ipyCatcherModel
BaseStationInformation
p3992
(dp3993
g6
(lp3994
g48
aS'49'
p3995
aS'06'
p3996
aS'03'
p3997
aS'cf'
p3998
aS'f7'
p3999
aS'a0'
p4000
aS'00'
p4001
aS'00'
p4002
aS'00'
p4003
aS'00'
p4004
aS'00'
p4005
aS'00'
p4006
aS'00'
p4007
aS'00'
p4008
aS'00'
p4009
aS'00'
p4010
aS'00'
p4011
aS'00'
p4012
aS'00'
p4013
aS'2b'
p4014
aS'2b'
p4015
aS'2b'
p4016
aS'2b'
p4017
asg8
(dp4018
g10
g11
ssg12
g13
sg14
(dp4019
g16
g17
sg18
g17
sg19
g17
sg20
g17
sg21
g17
sg22
g17
sg23
g17
sg24
g17
ssg25
I35625
sg26
(lp4020
I661
aI669
aI677
aI696
aI701
aI702
aI709
aI1007
aI1009
asg28
I-101
sg29
S'O2'
p4021
sg31
I0
sg32
g33
sg34
g17
sg35
I705
sg36
g37
sg38
S'17:56:26'
p4022
sg40
I50945
sg41
g11
sg42
S'7,3'
p4023
sg44
(lp4024
sg46
(lp4025
g48
aS'41'
p4026
aS'06'
p4027
aS'1c'
p4028
aS'62'
p4029
aS'f2'
p4030
aS'70'
p4031
aS'c7'
p4032
aS'01'
p4033
aS'60'
p4034
aS'45'
p4035
aS'b9'
p4036
aS'00'
p4037
aS'00'
p4038
aS'64'
p4039
aS'51'
p4040
aS'62'
p4041
aS'c1'
p4042
aS'51'
p4043
aS'2b'
p4044
aS'2b'
p4045
aS'2b'
p4046
aS'2b'
p4047
aS'2b'
p4048
asg72
(lp4049
g48
aS'49'
p4050
aS'06'
p4051
aS'1b'
p4052
aS'8b'
p4053
aS'29'
p4054
aS'62'
p4055
aS'f2'
p4056
aS'70'
p4057
aS'c7'
p4058
aS'01'
p4059
aS'd0'
p4060
aS'03'
p4061
aS'28'
p4062
aS'57'
p4063
aS'60'
p4064
aS'45'
p4065
aS'b9'
p4066
aS'00'
p4067
aS'00'
p4068
aS'56'
p4069
aS'25'
p4070
aS'2b'
p4071
aS'2b'
p4072
asg97
(lp4073
g48
aS'59'
p4074
aS'06'
p4075
aS'1a'
p4076
aS'8f'
p4077
aS'4a'
p4078
aS'80'
p4079
aS'80'
p4080
aS'80'
p4081
aS'00'
p4082
aS'10'
p4083
aS'c0'
p4084
aS'80'
p4085
aS'00'
p4086
aS'00'
p4087
aS'00'
p4088
aS'00'
p4089
aS'00'
p4090
aS'00'
p4091
aS'00'
p4092
aS'80'
p4093
aS'b9'
p4094
aS'00'
p4095
aS'00'
p4096
asg122
(lp4097
g48
aS'55'
p4098
aS'06'
p4099
aS'19'
p4100
aS'8f'
p4101
aS'43'
p4102
aS'80'
p4103
aS'00'
p4104
aS'00'
p4105
aS'00'
p4106
aS'00'
p4107
aS'80'
p4108
aS'08'
p4109
aS'28'
p4110
aS'00'
p4111
aS'00'
p4112
aS'00'
p4113
aS'00'
p4114
aS'00'
p4115
aS'00'
p4116
aS'b9'
p4117
aS'00'
p4118
aS'00'
p4119
aS'2b'
p4120
asg147
S'Germany'
p4121
sg149
I0
sg150
I01
sg151
I1
sba(ipyCatcherModel
BaseStationInformation
p4122
(dp4123
g6
(lp4124
g48
aS'49'
p4125
aS'06'
p4126
aS'03'
p4127
aS'cf'
p4128
aS'f5'
p4129
aS'80'
p4130
aS'00'
p4131
aS'00'
p4132
aS'00'
p4133
aS'00'
p4134
aS'00'
p4135
aS'00'
p4136
aS'00'
p4137
aS'00'
p4138
aS'00'
p4139
aS'00'
p4140
aS'00'
p4141
aS'00'
p4142
aS'00'
p4143
aS'2b'
p4144
aS'2b'
p4145
aS'2b'
p4146
aS'2b'
p4147
asg8
(dp4148
g10
g11
ssg12
g13
sg14
(dp4149
g16
g17
sg18
g17
sg19
g17
sg20
g17
sg21
g17
sg22
g17
sg23
g17
sg24
g17
ssg25
I9890
sg26
(lp4150
I640
aI643
aI660
aI661
aI672
aI677
aI686
aI696
aI704
aI705
aI709
aI721
aI1003
asg28
I-91
sg29
S'O2'
p4151
sg31
I0
sg32
g33
sg34
g17
sg35
I670
sg36
g37
sg38
S'17:56:37'
p4152
sg40
I50945
sg41
g11
sg42
S'7,4'
p4153
sg44
(lp4154
sg46
(lp4155
g48
aS'41'
p4156
aS'06'
p4157
aS'1c'
p4158
aS'62'
p4159
aS'f2'
p4160
aS'70'
p4161
aS'c7'
p4162
aS'01'
p4163
aS'60'
p4164
aS'45'
p4165
aS'b9'
p4166
aS'00'
p4167
aS'00'
p4168
aS'64'
p4169
aS'51'
p4170
aS'82'
p4171
aS'9e'
p4172
aS'51'
p4173
aS'2b'
p4174
aS'2b'
p4175
aS'2b'
p4176
aS'2b'
p4177
aS'2b'
p4178
asg72
(lp4179
g48
aS'49'
p4180
aS'06'
p4181
aS'1b'
p4182
aS'26'
p4183
aS'a2'
p4184
aS'62'
p4185
aS'f2'
p4186
aS'70'
p4187
aS'c7'
p4188
aS'01'
p4189
aS'd0'
p4190
aS'03'
p4191
aS'28'
p4192
aS'57'
p4193
aS'60'
p4194
aS'45'
p4195
aS'b9'
p4196
aS'00'
p4197
aS'00'
p4198
aS'56'
p4199
aS'25'
p4200
aS'2b'
p4201
aS'2b'
p4202
asg97
(lp4203
g48
aS'59'
p4204
aS'06'
p4205
aS'1a'
p4206
aS'8f'
p4207
aS'40'
p4208
aS'10'
p4209
aS'00'
p4210
aS'0c'
p4211
aS'00'
p4212
aS'84'
p4213
aS'02'
p4214
aS'00'
p4215
aS'80'
p4216
aS'c4'
p4217
aS'00'
p4218
aS'40'
p4219
aS'00'
p4220
aS'00'
p4221
aS'00'
p4222
aS'80'
p4223
aS'b9'
p4224
aS'00'
p4225
aS'00'
p4226
asg122
(lp4227
g48
aS'55'
p4228
aS'06'
p4229
aS'19'
p4230
aS'8f'
p4231
aS'47'
p4232
aS'90'
p4233
aS'21'
p4234
aS'00'
p4235
aS'08'
p4236
aS'00'
p4237
aS'00'
p4238
aS'00'
p4239
aS'00'
p4240
aS'00'
p4241
aS'00'
p4242
aS'00'
p4243
aS'00'
p4244
aS'00'
p4245
aS'00'
p4246
aS'b9'
p4247
aS'00'
p4248
aS'00'
p4249
aS'2b'
p4250
asg147
S'Germany'
p4251
sg149
I0
sg150
I01
sg151
I1
sba(ipyCatcherModel
BaseStationInformation
p4252
(dp4253
g6
(lp4254
g48
aS'49'
p4255
aS'06'
p4256
aS'03'
p4257
aS'cf'
p4258
aS'f8'
p4259
aS'80'
p4260
aS'00'
p4261
aS'00'
p4262
aS'00'
p4263
aS'00'
p4264
aS'00'
p4265
aS'00'
p4266
aS'00'
p4267
aS'00'
p4268
aS'00'
p4269
aS'00'
p4270
aS'00'
p4271
aS'00'
p4272
aS'00'
p4273
aS'2b'
p4274
aS'2b'
p4275
aS'2b'
p4276
aS'2b'
p4277
asg8
(dp4278
g10
g11
ssg12
g13
sg14
(dp4279
g16
g17
sg18
g17
sg19
g17
sg20
g17
sg21
g17
sg22
g17
sg23
g17
sg24
g17
ssg25
I19544
sg26
(lp4280
I643
aI660
aI661
aI670
aI677
aI701
aI703
aI708
aI709
aI1009
asg28
I-76
sg29
S'O2'
p4281
sg31
I0
sg32
g33
sg34
g17
sg35
I672
sg36
g37
sg38
S'17:56:40'
p4282
sg40
I50945
sg41
g11
sg42
S'7,4'
p4283
sg44
(lp4284
sg46
(lp4285
g48
aS'41'
p4286
aS'06'
p4287
aS'1c'
p4288
aS'62'
p4289
aS'f2'
p4290
aS'70'
p4291
aS'c7'
p4292
aS'01'
p4293
aS'60'
p4294
aS'45'
p4295
aS'b9'
p4296
aS'00'
p4297
aS'00'
p4298
aS'64'
p4299
aS'51'
p4300
aS'82'
p4301
aS'a0'
p4302
aS'51'
p4303
aS'2b'
p4304
aS'2b'
p4305
aS'2b'
p4306
aS'2b'
p4307
aS'2b'
p4308
asg72
(lp4309
g48
aS'49'
p4310
aS'06'
p4311
aS'1b'
p4312
aS'4c'
p4313
aS'58'
p4314
aS'62'
p4315
aS'f2'
p4316
aS'70'
p4317
aS'c7'
p4318
aS'01'
p4319
aS'd0'
p4320
aS'03'
p4321
aS'28'
p4322
aS'57'
p4323
aS'60'
p4324
aS'45'
p4325
aS'b9'
p4326
aS'00'
p4327
aS'00'
p4328
aS'56'
p4329
aS'25'
p4330
aS'2b'
p4331
aS'2b'
p4332
asg97
(lp4333
g48
aS'59'
p4334
aS'06'
p4335
aS'1a'
p4336
aS'8f'
p4337
aS'41'
p4338
aS'80'
p4339
aS'00'
p4340
aS'60'
p4341
aS'10'
p4342
aS'20'
p4343
aS'00'
p4344
aS'00'
p4345
aS'28'
p4346
aS'60'
p4347
aS'00'
p4348
aS'00'
p4349
aS'00'
p4350
aS'00'
p4351
aS'00'
p4352
aS'80'
p4353
aS'b9'
p4354
aS'00'
p4355
aS'00'
p4356
asg122
(lp4357
g48
aS'55'
p4358
aS'06'
p4359
aS'19'
p4360
aS'8f'
p4361
aS'4b'
p4362
aS'88'
p4363
aS'48'
p4364
aS'80'
p4365
aS'00'
p4366
aS'00'
p4367
aS'00'
p4368
aS'00'
p4369
aS'00'
p4370
aS'00'
p4371
aS'00'
p4372
aS'00'
p4373
aS'00'
p4374
aS'00'
p4375
aS'00'
p4376
aS'b9'
p4377
aS'00'
p4378
aS'00'
p4379
aS'2b'
p4380
asg147
S'Germany'
p4381
sg149
I0
sg150
I01
sg151
I1
sba(ipyCatcherModel
BaseStationInformation
p4382
(dp4383
g6
(lp4384
g48
aS'01'
p4385
aS'06'
p4386
aS'03'
p4387
aS'df'
p4388
aS'8f'
p4389
aS'06'
p4390
aS'a0'
p4391
aS'87'
p4392
aS'64'
p4393
aS'00'
p4394
aS'00'
p4395
aS'00'
p4396
aS'00'
p4397
aS'00'
p4398
aS'00'
p4399
aS'00'
p4400
aS'00'
p4401
aS'00'
p4402
aS'00'
p4403
aS'2b'
p4404
aS'2b'
p4405
aS'2b'
p4406
aS'2b'
p4407
asg8
(dp4408
g10
g11
ssg12
g13
sg14
(dp4409
g16
g17
sg18
g17
sg19
g17
sg20
g17
sg21
g17
sg22
g17
sg23
g17
sg24
g17
ssg25
I44373
sg26
(lp4410
I798
aI803
aI804
aI806
aI808
aI814
aI819
aI820
aI821
aI823
aI824
aI827
aI979
aI982
aI984
aI985
aI987
aI993
aI996
asg28
I-94
sg29
S'E-Plus'
p4411
sg31
I0
sg32
g33
sg34
g17
sg35
I988
sg36
g37
sg38
S'17:57:07'
p4412
sg40
I588
sg41
g11
sg42
S'3,3'
p4413
sg44
(lp4414
sg46
(lp4415
g48
aS'31'
p4416
aS'06'
p4417
aS'1c'
p4418
aS'62'
p4419
aS'f2'
p4420
aS'30'
p4421
aS'02'
p4422
aS'4c'
p4423
aS'65'
p4424
aS'03'
p4425
aS'94'
p4426
aS'00'
p4427
aS'00'
p4428
aS'89'
p4429
aS'1f'
p4430
aS'43'
p4431
aS'2b'
p4432
aS'2b'
p4433
aS'2b'
p4434
aS'2b'
p4435
aS'2b'
p4436
aS'2b'
p4437
aS'2b'
p4438
asg72
(lp4439
g48
aS'49'
p4440
aS'06'
p4441
aS'1b'
p4442
aS'ad'
p4443
aS'55'
p4444
aS'62'
p4445
aS'f2'
p4446
aS'30'
p4447
aS'02'
p4448
aS'4c'
p4449
aS'c9'
p4450
aS'05'
p4451
aS'78'
p4452
aS'46'
p4453
aS'65'
p4454
aS'03'
p4455
aS'94'
p4456
aS'00'
p4457
aS'00'
p4458
aS'89'
p4459
aS'1f'
p4460
aS'40'
p4461
aS'4b'
p4462
asg97
(lp4463
g48
aS'59'
p4464
aS'06'
p4465
aS'1a'
p4466
aS'9b'
p4467
aS'e9'
p4468
aS'84'
p4469
aS'7d'
p4470
aS'0d'
p4471
aS'f7'
p4472
aS'60'
p4473
aS'86'
p4474
aS'00'
p4475
aS'00'
p4476
aS'00'
p4477
aS'00'
p4478
aS'00'
p4479
aS'00'
p4480
aS'00'
p4481
aS'00'
p4482
aS'08'
p4483
aS'94'
p4484
aS'00'
p4485
aS'00'
p4486
asg122
(lp4487
g48
aS'55'
p4488
aS'06'
p4489
aS'19'
p4490
aS'8f'
p4491
aS'ee'
p4492
aS'00'
p4493
aS'00'
p4494
aS'00'
p4495
aS'00'
p4496
aS'00'
p4497
aS'00'
p4498
aS'00'
p4499
aS'00'
p4500
aS'00'
p4501
aS'00'
p4502
aS'00'
p4503
aS'00'
p4504
aS'00'
p4505
aS'00'
p4506
aS'94'
p4507
aS'00'
p4508
aS'00'
p4509
aS'2b'
p4510
asg147
S'Germany'
p4511
sg149
I0
sg150
I01
sg151
I1
sba(ipyCatcherModel
BaseStationInformation
p4512
(dp4513
g6
(lp4514
g48
aS'01'
p4515
aS'06'
p4516
aS'03'
p4517
aS'df'
p4518
aS'93'
p4519
aS'61'
p4520
aS'29'
p4521
aS'14'
p4522
aS'00'
p4523
aS'00'
p4524
aS'00'
p4525
aS'00'
p4526
aS'00'
p4527
aS'00'
p4528
aS'00'
p4529
aS'00'
p4530
aS'00'
p4531
aS'00'
p4532
aS'00'
p4533
aS'2b'
p4534
aS'2b'
p4535
aS'2b'
p4536
aS'2b'
p4537
asg8
(dp4538
g10
g11
ssg12
g13
sg14
(dp4539
g16
g17
sg18
g17
sg19
g17
sg20
g17
sg21
g17
sg22
g17
sg23
g17
sg24
g17
ssg25
I53978
sg26
(lp4540
I806
aI807
aI808
aI813
aI816
aI818
aI821
aI825
aI827
aI980
aI983
aI984
aI987
aI995
aI998
asg28
I-95
sg29
S'E-Plus'
p4541
sg31
I0
sg32
g33
sg34
g17
sg35
I991
sg36
g37
sg38
S'17:57:10'
p4542
sg40
I588
sg41
g11
sg42
S'3,2'
p4543
sg44
(lp4544
sg46
(lp4545
g48
aS'31'
p4546
aS'06'
p4547
aS'1c'
p4548
aS'62'
p4549
aS'f2'
p4550
aS'30'
p4551
aS'02'
p4552
aS'4c'
p4553
aS'65'
p4554
aS'03'
p4555
aS'94'
p4556
aS'00'
p4557
aS'00'
p4558
aS'01'
p4559
aS'2b'
p4560
aS'2b'
p4561
aS'2b'
p4562
aS'2b'
p4563
aS'2b'
p4564
aS'2b'
p4565
aS'2b'
p4566
aS'2b'
p4567
aS'2b'
p4568
asg72
(lp4569
g48
aS'49'
p4570
aS'06'
p4571
aS'1b'
p4572
aS'd2'
p4573
aS'da'
p4574
aS'62'
p4575
aS'f2'
p4576
aS'30'
p4577
aS'02'
p4578
aS'4c'
p4579
aS'c9'
p4580
aS'05'
p4581
aS'78'
p4582
aS'46'
p4583
aS'65'
p4584
aS'03'
p4585
aS'94'
p4586
aS'00'
p4587
aS'00'
p4588
aS'1c'
p4589
aS'13'
p4590
aS'2b'
p4591
aS'2b'
p4592
asg97
(lp4593
g48
aS'59'
p4594
aS'06'
p4595
aS'1a'
p4596
aS'9b'
p4597
aS'ea'
p4598
aS'05'
p4599
aS'f9'
p4600
aS'0f'
p4601
aS'ff'
p4602
aS'a1'
p4603
aS'80'
p4604
aS'00'
p4605
aS'00'
p4606
aS'00'
p4607
aS'00'
p4608
aS'00'
p4609
aS'00'
p4610
aS'00'
p4611
aS'00'
p4612
aS'08'
p4613
aS'94'
p4614
aS'00'
p4615
aS'00'
p4616
asg122
(lp4617
g48
aS'55'
p4618
aS'06'
p4619
aS'19'
p4620
aS'8f'
p4621
aS'ef'
p4622
aS'80'
p4623
aS'00'
p4624
aS'00'
p4625
aS'00'
p4626
aS'00'
p4627
aS'00'
p4628
aS'00'
p4629
aS'00'
p4630
aS'00'
p4631
aS'00'
p4632
aS'00'
p4633
aS'00'
p4634
aS'00'
p4635
aS'00'
p4636
aS'94'
p4637
aS'00'
p4638
aS'00'
p4639
aS'2b'
p4640
asg147
S'Germany'
p4641
sg149
I0
sg150
I01
sg151
I1
sba(ipyCatcherModel
BaseStationInformation
p4642
(dp4643
g6
(lp4644
g48
aS'01'
p4645
aS'06'
p4646
aS'03'
p4647
aS'df'
p4648
aS'8a'
p4649
aS'1b'
p4650
aS'00'
p4651
aS'28'
p4652
aS'41'
p4653
aS'02'
p4654
aS'00'
p4655
aS'00'
p4656
aS'00'
p4657
aS'00'
p4658
aS'00'
p4659
aS'00'
p4660
aS'00'
p4661
aS'00'
p4662
aS'00'
p4663
aS'2b'
p4664
aS'2b'
p4665
aS'2b'
p4666
aS'2b'
p4667
asg8
(dp4668
g10
g11
ssg12
g13
sg14
(dp4669
g16
g17
sg18
g17
sg19
g17
sg20
g17
sg21
g17
sg22
g17
sg23
g17
sg24
g17
ssg25
I48313
sg26
(lp4670
I788
aI791
aI792
aI794
aI795
aI806
aI808
aI813
aI819
aI826
aI982
aI989
aI990
aI993
asg28
I-83
sg29
S'E-Plus'
p4671
sg31
I0
sg32
g33
sg34
g17
sg35
I996
sg36
g37
sg38
S'17:57:14'
p4672
sg40
I588
sg41
g11
sg42
S'3,1'
p4673
sg44
(lp4674
sg46
(lp4675
g48
aS'31'
p4676
aS'06'
p4677
aS'1c'
p4678
aS'62'
p4679
aS'f2'
p4680
aS'30'
p4681
aS'02'
p4682
aS'4c'
p4683
aS'65'
p4684
aS'03'
p4685
aS'94'
p4686
aS'00'
p4687
aS'00'
p4688
aS'89'
p4689
aS'1f'
p4690
aS'43'
p4691
aS'2b'
p4692
aS'2b'
p4693
aS'2b'
p4694
aS'2b'
p4695
aS'2b'
p4696
aS'2b'
p4697
aS'2b'
p4698
asg72
(lp4699
g48
aS'49'
p4700
aS'06'
p4701
aS'1b'
p4702
aS'bc'
p4703
aS'b9'
p4704
aS'62'
p4705
aS'f2'
p4706
aS'30'
p4707
aS'02'
p4708
aS'4c'
p4709
aS'c9'
p4710
aS'05'
p4711
aS'78'
p4712
aS'46'
p4713
aS'65'
p4714
aS'03'
p4715
aS'94'
p4716
aS'00'
p4717
aS'00'
p4718
aS'89'
p4719
aS'1f'
p4720
aS'40'
p4721
aS'4b'
p4722
asg97
(lp4723
g48
aS'59'
p4724
aS'06'
p4725
aS'1a'
p4726
aS'9b'
p4727
aS'eb'
p4728
aS'05'
p4729
aS'fd'
p4730
aS'07'
p4731
aS'f8'
p4732
aS'00'
p4733
aS'00'
p4734
aS'00'
p4735
aS'00'
p4736
aS'00'
p4737
aS'00'
p4738
aS'00'
p4739
aS'00'
p4740
aS'00'
p4741
aS'00'
p4742
aS'08'
p4743
aS'94'
p4744
aS'00'
p4745
aS'00'
p4746
asg122
(lp4747
g48
aS'55'
p4748
aS'06'
p4749
aS'19'
p4750
aS'8f'
p4751
aS'f2'
p4752
aS'00'
p4753
aS'00'
p4754
aS'00'
p4755
aS'00'
p4756
aS'00'
p4757
aS'00'
p4758
aS'00'
p4759
aS'00'
p4760
aS'00'
p4761
aS'00'
p4762
aS'00'
p4763
aS'00'
p4764
aS'00'
p4765
aS'00'
p4766
aS'94'
p4767
aS'00'
p4768
aS'00'
p4769
aS'2b'
p4770
asg147
S'Germany'
p4771
sg149
I0
sg150
I01
sg151
I1
sba(ipyCatcherModel
BaseStationInformation
p4772
(dp4773
g6
(lp4774
g48
aS'49'
p4775
aS'06'
p4776
aS'03'
p4777
aS'cf'
p4778
aS'47'
p4779
aS'02'
p4780
aS'00'
p4781
aS'14'
p4782
aS'00'
p4783
aS'08'
p4784
aS'06'
p4785
aS'af'
p4786
aS'e4'
p4787
aS'40'
p4788
aS'00'
p4789
aS'00'
p4790
aS'00'
p4791
aS'00'
p4792
aS'00'
p4793
aS'2b'
p4794
aS'2b'
p4795
aS'2b'
p4796
aS'2b'
p4797
asg8
(dp4798
g10
g11
ssg12
g13
sg14
(dp4799
g16
g17
sg18
g17
sg19
g17
sg20
g17
sg21
g17
sg22
g17
sg23
g17
sg24
g17
ssg25
I1384
sg26
(lp4800
I654
aI660
aI673
aI675
aI690
aI699
aI700
aI702
aI704
aI706
aI707
aI708
aI709
aI710
aI711
aI712
aI715
aI719
aI1012
aI1016
asg28
I-90
sg29
S'O2'
p4801
sg31
I0
sg32
g33
sg34
g17
sg35
I1002
sg36
g37
sg38
S'17:57:25'
p4802
sg40
I50945
sg41
g11
sg42
S'7,0'
p4803
sg44
(lp4804
sg46
(lp4805
g48
aS'41'
p4806
aS'06'
p4807
aS'1c'
p4808
aS'62'
p4809
aS'f2'
p4810
aS'70'
p4811
aS'c7'
p4812
aS'01'
p4813
aS'65'
p4814
aS'45'
p4815
aS'b9'
p4816
aS'00'
p4817
aS'00'
p4818
aS'64'
p4819
aS'51'
p4820
aS'03'
p4821
aS'ea'
p4822
aS'51'
p4823
aS'2b'
p4824
aS'2b'
p4825
aS'2b'
p4826
aS'2b'
p4827
aS'2b'
p4828
asg72
(lp4829
g48
aS'49'
p4830
aS'06'
p4831
aS'1b'
p4832
aS'05'
p4833
aS'68'
p4834
aS'62'
p4835
aS'f2'
p4836
aS'70'
p4837
aS'c7'
p4838
aS'01'
p4839
aS'd0'
p4840
aS'03'
p4841
aS'28'
p4842
aS'57'
p4843
aS'65'
p4844
aS'45'
p4845
aS'b9'
p4846
aS'00'
p4847
aS'00'
p4848
aS'56'
p4849
aS'25'
p4850
aS'2b'
p4851
aS'2b'
p4852
asg97
(lp4853
g48
aS'59'
p4854
aS'06'
p4855
aS'1a'
p4856
aS'8f'
p4857
aS'fa'
p4858
aS'08'
p4859
aS'00'
p4860
aS'00'
p4861
aS'00'
p4862
aS'00'
p4863
aS'00'
p4864
aS'00'
p4865
aS'00'
p4866
aS'00'
p4867
aS'00'
p4868
aS'00'
p4869
aS'00'
p4870
aS'00'
p4871
aS'00'
p4872
aS'80'
p4873
aS'b9'
p4874
aS'00'
p4875
aS'00'
p4876
asg122
(lp4877
g48
aS'55'
p4878
aS'06'
p4879
aS'19'
p4880
aS'8f'
p4881
aS'f5'
p4882
aS'02'
p4883
aS'88'
p4884
aS'00'
p4885
aS'00'
p4886
aS'00'
p4887
aS'00'
p4888
aS'00'
p4889
aS'00'
p4890
aS'00'
p4891
aS'00'
p4892
aS'00'
p4893
aS'00'
p4894
aS'00'
p4895
aS'00'
p4896
aS'b9'
p4897
aS'00'
p4898
aS'00'
p4899
aS'2b'
p4900
asg147
S'Germany'
p4901
sg149
I0
sg150
I01
sg151
I1
sba(ipyCatcherModel
BaseStationInformation
p4902
(dp4903
g6
(lp4904
g48
aS'49'
p4905
aS'06'
p4906
aS'03'
p4907
aS'cf'
p4908
aS'f5'
p4909
aS'80'
p4910
aS'00'
p4911
aS'00'
p4912
aS'00'
p4913
aS'00'
p4914
aS'00'
p4915
aS'00'
p4916
aS'00'
p4917
aS'00'
p4918
aS'00'
p4919
aS'00'
p4920
aS'00'
p4921
aS'00'
p4922
aS'00'
p4923
aS'2b'
p4924
aS'2b'
p4925
aS'2b'
p4926
aS'2b'
p4927
asg8
(dp4928
g10
g11
ssg12
g13
sg14
(dp4929
g16
g17
sg18
g17
sg19
g17
sg20
g17
sg21
g17
sg22
g17
sg23
g17
sg24
g17
ssg25
I59748
sg26
(lp4930
I659
aI670
aI676
aI677
aI681
aI696
aI702
aI707
aI709
aI711
aI719
aI721
aI1003
asg28
I-99
sg29
S'O2'
p4931
sg31
I0
sg32
g33
sg34
g17
sg35
I704
sg36
g37
sg38
S'17:57:36'
p4932
sg40
I50945
sg41
g11
sg42
S'7,0'
p4933
sg44
(lp4934
sg46
(lp4935
g48
aS'41'
p4936
aS'06'
p4937
aS'1c'
p4938
aS'62'
p4939
aS'f2'
p4940
aS'70'
p4941
aS'c7'
p4942
aS'01'
p4943
aS'60'
p4944
aS'45'
p4945
aS'b9'
p4946
aS'00'
p4947
aS'00'
p4948
aS'64'
p4949
aS'51'
p4950
aS'02'
p4951
aS'c0'
p4952
aS'51'
p4953
aS'2b'
p4954
aS'2b'
p4955
aS'2b'
p4956
aS'2b'
p4957
aS'2b'
p4958
asg72
(lp4959
g48
aS'49'
p4960
aS'06'
p4961
aS'1b'
p4962
aS'e9'
p4963
aS'64'
p4964
aS'62'
p4965
aS'f2'
p4966
aS'70'
p4967
aS'c7'
p4968
aS'01'
p4969
aS'd0'
p4970
aS'03'
p4971
aS'28'
p4972
aS'57'
p4973
aS'60'
p4974
aS'45'
p4975
aS'b9'
p4976
aS'00'
p4977
aS'00'
p4978
aS'56'
p4979
aS'25'
p4980
aS'2b'
p4981
aS'2b'
p4982
asg97
(lp4983
g48
aS'59'
p4984
aS'06'
p4985
aS'1a'
p4986
aS'8f'
p4987
aS'49'
p4988
aS'80'
p4989
aS'10'
p4990
aS'62'
p4991
aS'00'
p4992
aS'04'
p4993
aS'10'
p4994
aS'a8'
p4995
aS'0a'
p4996
aS'00'
p4997
aS'00'
p4998
aS'00'
p4999
aS'00'
p5000
aS'00'
p5001
aS'00'
p5002
aS'80'
p5003
aS'b9'
p5004
aS'00'
p5005
aS'00'
p5006
asg122
(lp5007
g48
aS'55'
p5008
aS'06'
p5009
aS'19'
p5010
aS'8f'
p5011
aS'40'
p5012
aS'90'
p5013
aS'00'
p5014
aS'00'
p5015
aS'00'
p5016
aS'00'
p5017
aS'01'
p5018
aS'00'
p5019
aS'01'
p5020
aS'00'
p5021
aS'08'
p5022
aS'00'
p5023
aS'00'
p5024
aS'00'
p5025
aS'00'
p5026
aS'b9'
p5027
aS'00'
p5028
aS'00'
p5029
aS'2b'
p5030
asg147
S'Germany'
p5031
sg149
I0
sg150
I01
sg151
I1
sba(ipyCatcherModel
BaseStationInformation
p5032
(dp5033
g6
(lp5034
g48
aS'01'
p5035
aS'06'
p5036
aS'03'
p5037
aS'40'
p5038
aS'08'
p5039
aS'00'
p5040
aS'00'
p5041
aS'00'
p5042
aS'00'
p5043
aS'01'
p5044
aS'20'
p5045
aS'82'
p5046
aS'00'
p5047
aS'00'
p5048
aS'00'
p5049
aS'00'
p5050
aS'00'
p5051
aS'00'
p5052
aS'28'
p5053
aS'2b'
p5054
aS'2b'
p5055
aS'2b'
p5056
aS'2b'
p5057
asg8
(dp5058
g10
g11
ssg12
g13
sg14
(dp5059
g16
g17
sg18
g17
sg19
g17
sg20
g17
sg21
g17
sg22
g17
sg23
g17
sg24
g17
ssg25
I58637
sg26
(lp5060
I4
aI6
aI58
aI64
aI70
aI73
aI116
aI725
aI743
asg28
I-99
sg29
S'Vodafone'
p5061
sg31
I0
sg32
g33
sg34
g17
sg35
I745
sg36
g37
sg38
S'17:57:40'
p5062
sg40
I793
sg41
g11
sg42
S'3,3'
p5063
sg44
(lp5064
sg46
(lp5065
g48
aS'31'
p5066
aS'06'
p5067
aS'1c'
p5068
aS'62'
p5069
aS'f2'
p5070
aS'20'
p5071
aS'03'
p5072
aS'19'
p5073
aS'60'
p5074
aS'04'
p5075
aS'b9'
p5076
aS'00'
p5077
aS'00'
p5078
aS'c0'
p5079
aS'1f'
p5080
aS'4b'
p5081
aS'2b'
p5082
aS'2b'
p5083
aS'2b'
p5084
aS'2b'
p5085
aS'2b'
p5086
aS'2b'
p5087
aS'2b'
p5088
asg72
(lp5089
g48
aS'49'
p5090
aS'06'
p5091
aS'1b'
p5092
aS'e5'
p5093
aS'0d'
p5094
aS'62'
p5095
aS'f2'
p5096
aS'20'
p5097
aS'03'
p5098
aS'19'
p5099
aS'c8'
p5100
aS'04'
p5101
aS'0a'
p5102
aS'15'
p5103
aS'60'
p5104
aS'04'
p5105
aS'b9'
p5106
aS'00'
p5107
aS'00'
p5108
aS'c0'
p5109
aS'1f'
p5110
aS'41'
p5111
aS'1b'
p5112
asg97
(lp5113
g48
aS'59'
p5114
aS'06'
p5115
aS'1a'
p5116
aS'8f'
p5117
aS'6a'
p5118
aS'80'
p5119
aS'00'
p5120
aS'20'
p5121
aS'00'
p5122
aS'00'
p5123
aS'00'
p5124
aS'00'
p5125
aS'00'
p5126
aS'00'
p5127
aS'00'
p5128
aS'00'
p5129
aS'00'
p5130
aS'00'
p5131
aS'00'
p5132
aS'88'
p5133
aS'b9'
p5134
aS'00'
p5135
aS'00'
p5136
asg122
(lp5137
g48
aS'55'
p5138
aS'06'
p5139
aS'19'
p5140
aS'8f'
p5141
aS'6d'
p5142
aS'0a'
p5143
aS'50'
p5144
aS'40'
p5145
aS'00'
p5146
aS'00'
p5147
aS'00'
p5148
aS'00'
p5149
aS'00'
p5150
aS'00'
p5151
aS'00'
p5152
aS'00'
p5153
aS'00'
p5154
aS'00'
p5155
aS'00'
p5156
aS'b9'
p5157
aS'00'
p5158
aS'00'
p5159
aS'83'
p5160
asg147
S'Germany'
p5161
sg149
I0
sg150
I01
sg151
I1
sba(ipyCatcherModel
BaseStationInformation
p5162
(dp5163
g6
(lp5164
g48
aS'01'
p5165
aS'06'
p5166
aS'03'
p5167
aS'df'
p5168
aS'84'
p5169
aS'80'
p5170
aS'10'
p5171
aS'08'
p5172
aS'2d'
p5173
aS'08'
p5174
aS'a2'
p5175
aS'48'
p5176
aS'00'
p5177
aS'00'
p5178
aS'00'
p5179
aS'00'
p5180
aS'00'
p5181
aS'00'
p5182
aS'00'
p5183
aS'2b'
p5184
aS'2b'
p5185
aS'2b'
p5186
aS'2b'
p5187
asg8
(dp5188
g10
g11
ssg12
g13
sg14
(dp5189
g16
g17
sg18
g17
sg19
g17
sg20
g17
sg21
g17
sg22
g17
sg23
g17
sg24
g17
ssg25
I53288
sg26
(lp5190
I777
aI788
aI797
aI803
aI805
aI806
aI808
aI813
aI817
aI819
aI823
aI826
aI829
aI985
aI986
aI989
aI992
aI996
aI997
asg28
I-85
sg29
S'E-Plus'
p5191
sg31
I0
sg32
g33
sg34
g17
sg35
I982
sg36
g37
sg38
S'17:57:44'
p5192
sg40
I588
sg41
g11
sg42
S'3,5'
p5193
sg44
(lp5194
sg46
(lp5195
g48
aS'31'
p5196
aS'06'
p5197
aS'1c'
p5198
aS'62'
p5199
aS'f2'
p5200
aS'30'
p5201
aS'02'
p5202
aS'4c'
p5203
aS'65'
p5204
aS'03'
p5205
aS'94'
p5206
aS'00'
p5207
aS'00'
p5208
aS'89'
p5209
aS'1f'
p5210
aS'43'
p5211
aS'2b'
p5212
aS'2b'
p5213
aS'2b'
p5214
aS'2b'
p5215
aS'2b'
p5216
aS'2b'
p5217
aS'2b'
p5218
asg72
(lp5219
g48
aS'49'
p5220
aS'06'
p5221
aS'1b'
p5222
aS'd0'
p5223
aS'28'
p5224
aS'62'
p5225
aS'f2'
p5226
aS'30'
p5227
aS'02'
p5228
aS'4c'
p5229
aS'c9'
p5230
aS'05'
p5231
aS'78'
p5232
aS'46'
p5233
aS'65'
p5234
aS'03'
p5235
aS'94'
p5236
aS'00'
p5237
aS'00'
p5238
aS'89'
p5239
aS'1f'
p5240
aS'40'
p5241
aS'4b'
p5242
asg97
(lp5243
g48
aS'59'
p5244
aS'06'
p5245
aS'1a'
p5246
aS'9b'
p5247
aS'eb'
p5248
aS'05'
p5249
aS'7a'
p5250
aS'0b'
p5251
aS'ff'
p5252
aS'e1'
p5253
aS'80'
p5254
aS'00'
p5255
aS'00'
p5256
aS'00'
p5257
aS'00'
p5258
aS'00'
p5259
aS'00'
p5260
aS'00'
p5261
aS'00'
p5262
aS'08'
p5263
aS'94'
p5264
aS'00'
p5265
aS'00'
p5266
asg122
(lp5267
g48
aS'55'
p5268
aS'06'
p5269
aS'19'
p5270
aS'8f'
p5271
aS'eb'
p5272
aS'00'
p5273
aS'00'
p5274
aS'00'
p5275
aS'00'
p5276
aS'00'
p5277
aS'00'
p5278
aS'00'
p5279
aS'00'
p5280
aS'00'
p5281
aS'00'
p5282
aS'00'
p5283
aS'00'
p5284
aS'00'
p5285
aS'00'
p5286
aS'94'
p5287
aS'00'
p5288
aS'00'
p5289
aS'2b'
p5290
asg147
S'Germany'
p5291
sg149
I0
sg150
I01
sg151
I1
sba(ipyCatcherModel
BaseStationInformation
p5292
(dp5293
g6
(lp5294
g48
aS'01'
p5295
aS'06'
p5296
aS'03'
p5297
aS'df'
p5298
aS'84'
p5299
aS'80'
p5300
aS'00'
p5301
aS'08'
p5302
aS'25'
p5303
aS'52'
p5304
aS'c2'
p5305
aS'10'
p5306
aS'00'
p5307
aS'00'
p5308
aS'00'
p5309
aS'00'
p5310
aS'00'
p5311
aS'00'
p5312
aS'00'
p5313
aS'2b'
p5314
aS'2b'
p5315
aS'2b'
p5316
aS'2b'
p5317
asg8
(dp5318
g10
g11
ssg12
g13
sg14
(dp5319
g16
g17
sg18
g17
sg19
g17
sg20
g17
sg21
g17
sg22
g17
sg23
g17
sg24
g17
ssg25
I52398
sg26
(lp5320
I777
aI797
aI803
aI806
aI808
aI810
aI812
aI815
aI817
aI818
aI823
aI828
aI985
aI986
aI991
aI992
aI996
asg28
I-93
sg29
S'E-Plus'
p5321
sg31
I0
sg32
g33
sg34
g17
sg35
I987
sg36
g37
sg38
S'17:57:48'
p5322
sg40
I588
sg41
g11
sg42
S'3,6'
p5323
sg44
(lp5324
sg46
(lp5325
g48
aS'31'
p5326
aS'06'
p5327
aS'1c'
p5328
aS'62'
p5329
aS'f2'
p5330
aS'30'
p5331
aS'02'
p5332
aS'4c'
p5333
aS'65'
p5334
aS'03'
p5335
aS'94'
p5336
aS'00'
p5337
aS'00'
p5338
aS'89'
p5339
aS'1f'
p5340
aS'43'
p5341
aS'2b'
p5342
aS'2b'
p5343
aS'2b'
p5344
aS'2b'
p5345
aS'2b'
p5346
aS'2b'
p5347
aS'2b'
p5348
asg72
(lp5349
g48
aS'49'
p5350
aS'06'
p5351
aS'1b'
p5352
aS'cc'
p5353
aS'ae'
p5354
aS'62'
p5355
aS'f2'
p5356
aS'30'
p5357
aS'02'
p5358
aS'4c'
p5359
aS'c9'
p5360
aS'05'
p5361
aS'78'
p5362
aS'46'
p5363
aS'65'
p5364
aS'03'
p5365
aS'94'
p5366
aS'00'
p5367
aS'00'
p5368
aS'89'
p5369
aS'1f'
p5370
aS'40'
p5371
aS'4b'
p5372
asg97
(lp5373
g48
aS'59'
p5374
aS'06'
p5375
aS'1a'
p5376
aS'9b'
p5377
aS'ec'
p5378
aS'83'
p5379
aS'7c'
p5380
aS'0b'
p5381
aS'ff'
p5382
aS'80'
p5383
aS'00'
p5384
aS'00'
p5385
aS'00'
p5386
aS'00'
p5387
aS'00'
p5388
aS'00'
p5389
aS'00'
p5390
aS'00'
p5391
aS'00'
p5392
aS'08'
p5393
aS'94'
p5394
aS'00'
p5395
aS'00'
p5396
asg122
(lp5397
g48
aS'55'
p5398
aS'06'
p5399
aS'19'
p5400
aS'8f'
p5401
aS'ed'
p5402
aS'80'
p5403
aS'00'
p5404
aS'00'
p5405
aS'00'
p5406
aS'00'
p5407
aS'00'
p5408
aS'00'
p5409
aS'00'
p5410
aS'00'
p5411
aS'00'
p5412
aS'00'
p5413
aS'00'
p5414
aS'00'
p5415
aS'00'
p5416
aS'94'
p5417
aS'00'
p5418
aS'00'
p5419
aS'2b'
p5420
asg147
S'Germany'
p5421
sg149
I0
sg150
I01
sg151
I1
sba(ipyCatcherModel
BaseStationInformation
p5422
(dp5423
g6
(lp5424
g48
aS'01'
p5425
aS'06'
p5426
aS'03'
p5427
aS'40'
p5428
aS'00'
p5429
aS'80'
p5430
aS'00'
p5431
aS'00'
p5432
aS'00'
p5433
aS'01'
p5434
aS'24'
p5435
aS'80'
p5436
aS'00'
p5437
aS'00'
p5438
aS'00'
p5439
aS'00'
p5440
aS'00'
p5441
aS'00'
p5442
aS'28'
p5443
aS'2b'
p5444
aS'2b'
p5445
aS'2b'
p5446
aS'2b'
p5447
asg8
(dp5448
g10
g11
ssg12
g13
sg14
(dp5449
g16
g17
sg18
g17
sg19
g17
sg20
g17
sg21
g17
sg22
g17
sg23
g17
sg24
g17
ssg25
I58639
sg26
(lp5450
I4
aI6
aI64
aI67
aI70
aI73
aI112
aI725
aI745
asg28
I-95
sg29
S'Vodafone'
p5451
sg31
I0
sg32
g33
sg34
g17
sg35
I743
sg36
g37
sg38
S'17:57:58'
p5452
sg40
I793
sg41
g11
sg42
S'3,5'
p5453
sg44
(lp5454
sg46
(lp5455
g48
aS'31'
p5456
aS'06'
p5457
aS'1c'
p5458
aS'62'
p5459
aS'f2'
p5460
aS'20'
p5461
aS'03'
p5462
aS'19'
p5463
aS'60'
p5464
aS'04'
p5465
aS'b9'
p5466
aS'00'
p5467
aS'00'
p5468
aS'c0'
p5469
aS'1f'
p5470
aS'4b'
p5471
aS'2b'
p5472
aS'2b'
p5473
aS'2b'
p5474
aS'2b'
p5475
aS'2b'
p5476
aS'2b'
p5477
aS'2b'
p5478
asg72
(lp5479
g48
aS'49'
p5480
aS'06'
p5481
aS'1b'
p5482
aS'e5'
p5483
aS'0f'
p5484
aS'62'
p5485
aS'f2'
p5486
aS'20'
p5487
aS'03'
p5488
aS'19'
p5489
aS'c8'
p5490
aS'04'
p5491
aS'0a'
p5492
aS'15'
p5493
aS'60'
p5494
aS'04'
p5495
aS'b9'
p5496
aS'00'
p5497
aS'00'
p5498
aS'c0'
p5499
aS'1f'
p5500
aS'41'
p5501
aS'1b'
p5502
asg97
(lp5503
g48
aS'59'
p5504
aS'06'
p5505
aS'1a'
p5506
aS'8f'
p5507
aS'6a'
p5508
aS'80'
p5509
aS'00'
p5510
aS'08'
p5511
aS'00'
p5512
aS'00'
p5513
aS'00'
p5514
aS'00'
p5515
aS'00'
p5516
aS'00'
p5517
aS'00'
p5518
aS'00'
p5519
aS'00'
p5520
aS'00'
p5521
aS'00'
p5522
aS'88'
p5523
aS'b9'
p5524
aS'00'
p5525
aS'00'
p5526
asg122
(lp5527
g48
aS'55'
p5528
aS'06'
p5529
aS'19'
p5530
aS'8f'
p5531
aS'6d'
p5532
aS'a2'
p5533
aS'00'
p5534
aS'50'
p5535
aS'00'
p5536
aS'00'
p5537
aS'00'
p5538
aS'00'
p5539
aS'00'
p5540
aS'00'
p5541
aS'00'
p5542
aS'00'
p5543
aS'00'
p5544
aS'00'
p5545
aS'00'
p5546
aS'b9'
p5547
aS'00'
p5548
aS'00'
p5549
aS'83'
p5550
asg147
S'Germany'
p5551
sg149
I0
sg150
I01
sg151
I1
sba(ipyCatcherModel
BaseStationInformation
p5552
(dp5553
g6
(lp5554
g48
aS'49'
p5555
aS'06'
p5556
aS'03'
p5557
aS'cf'
p5558
aS'f8'
p5559
aS'81'
p5560
aS'80'
p5561
aS'00'
p5562
aS'00'
p5563
aS'00'
p5564
aS'00'
p5565
aS'00'
p5566
aS'00'
p5567
aS'00'
p5568
aS'00'
p5569
aS'00'
p5570
aS'00'
p5571
aS'00'
p5572
aS'00'
p5573
aS'2b'
p5574
aS'2b'
p5575
aS'2b'
p5576
aS'2b'
p5577
asg8
(dp5578
g10
g11
ssg12
g13
sg14
(dp5579
g16
g17
sg18
g17
sg19
g17
sg20
g17
sg21
g17
sg22
g17
sg23
g17
sg24
g17
ssg25
I9802
sg26
(lp5580
I638
aI659
aI660
aI676
aI690
aI700
aI701
aI706
aI708
aI709
aI710
aI714
aI719
aI1009
aI1016
aI1017
asg28
I-99
sg29
S'O2'
p5581
sg31
I0
sg32
g33
sg34
g17
sg35
I680
sg36
g37
sg38
S'17:58:15'
p5582
sg40
I50945
sg41
g11
sg42
S'7,5'
p5583
sg44
(lp5584
sg46
(lp5585
g48
aS'41'
p5586
aS'06'
p5587
aS'1c'
p5588
aS'62'
p5589
aS'f2'
p5590
aS'70'
p5591
aS'c7'
p5592
aS'01'
p5593
aS'60'
p5594
aS'45'
p5595
aS'b9'
p5596
aS'00'
p5597
aS'00'
p5598
aS'64'
p5599
aS'51'
p5600
aS'a2'
p5601
aS'a8'
p5602
aS'51'
p5603
aS'2b'
p5604
aS'2b'
p5605
aS'2b'
p5606
aS'2b'
p5607
aS'2b'
p5608
asg72
(lp5609
g48
aS'49'
p5610
aS'06'
p5611
aS'1b'
p5612
aS'26'
p5613
aS'4a'
p5614
aS'62'
p5615
aS'f2'
p5616
aS'70'
p5617
aS'c7'
p5618
aS'01'
p5619
aS'd0'
p5620
aS'03'
p5621
aS'28'
p5622
aS'57'
p5623
aS'60'
p5624
aS'45'
p5625
aS'b9'
p5626
aS'00'
p5627
aS'00'
p5628
aS'56'
p5629
aS'25'
p5630
aS'2b'
p5631
aS'2b'
p5632
asg97
(lp5633
g48
aS'59'
p5634
aS'06'
p5635
aS'1a'
p5636
aS'8f'
p5637
aS'3f'
p5638
aS'00'
p5639
aS'00'
p5640
aS'06'
p5641
aS'00'
p5642
aS'02'
p5643
aS'00'
p5644
aS'08'
p5645
aS'03'
p5646
aS'0b'
p5647
aS'88'
p5648
aS'40'
p5649
aS'00'
p5650
aS'00'
p5651
aS'00'
p5652
aS'80'
p5653
aS'b9'
p5654
aS'00'
p5655
aS'00'
p5656
asg122
(lp5657
g48
aS'55'
p5658
aS'06'
p5659
aS'19'
p5660
aS'8f'
p5661
aS'47'
p5662
aS'80'
p5663
aS'01'
p5664
aS'41'
p5665
aS'40'
p5666
aS'00'
p5667
aS'00'
p5668
aS'00'
p5669
aS'00'
p5670
aS'00'
p5671
aS'00'
p5672
aS'00'
p5673
aS'00'
p5674
aS'00'
p5675
aS'00'
p5676
aS'b9'
p5677
aS'00'
p5678
aS'00'
p5679
aS'2b'
p5680
asg147
S'Germany'
p5681
sg149
I0
sg150
I01
sg151
I1
sba(ipyCatcherModel
BaseStationInformation
p5682
(dp5683
g6
(lp5684
g48
aS'49'
p5685
aS'06'
p5686
aS'03'
p5687
aS'cf'
p5688
aS'f7'
p5689
aS'eb'
p5690
aS'a0'
p5691
aS'00'
p5692
aS'00'
p5693
aS'00'
p5694
aS'00'
p5695
aS'00'
p5696
aS'00'
p5697
aS'00'
p5698
aS'00'
p5699
aS'00'
p5700
aS'00'
p5701
aS'00'
p5702
aS'00'
p5703
aS'2b'
p5704
aS'2b'
p5705
aS'2b'
p5706
aS'2b'
p5707
asg8
(dp5708
g10
g11
ssg12
g13
sg14
(dp5709
g16
g17
sg18
g17
sg19
g17
sg20
g17
sg21
g17
sg22
g17
sg23
g17
sg24
g17
ssg25
I29771
sg26
(lp5710
I648
aI689
aI691
aI697
aI698
aI701
aI703
aI1007
aI1008
aI1009
aI1011
aI1013
aI1014
aI1015
aI1017
asg28
I-102
sg29
S'O2'
p5711
sg31
I0
sg32
g33
sg34
g17
sg35
I653
sg36
g37
sg38
S'17:58:28'
p5712
sg40
I50945
sg41
g11
sg42
S'7,5'
p5713
sg44
(lp5714
sg46
(lp5715
g48
aS'41'
p5716
aS'06'
p5717
aS'1c'
p5718
aS'62'
p5719
aS'f2'
p5720
aS'70'
p5721
aS'c7'
p5722
aS'01'
p5723
aS'60'
p5724
aS'45'
p5725
aS'b9'
p5726
aS'00'
p5727
aS'00'
p5728
aS'64'
p5729
aS'51'
p5730
aS'a2'
p5731
aS'8d'
p5732
aS'51'
p5733
aS'2b'
p5734
aS'2b'
p5735
aS'2b'
p5736
aS'2b'
p5737
aS'2b'
p5738
asg72
(lp5739
g48
aS'49'
p5740
aS'06'
p5741
aS'1b'
p5742
aS'74'
p5743
aS'4b'
p5744
aS'62'
p5745
aS'f2'
p5746
aS'70'
p5747
aS'c7'
p5748
aS'01'
p5749
aS'd0'
p5750
aS'03'
p5751
aS'28'
p5752
aS'57'
p5753
aS'60'
p5754
aS'45'
p5755
aS'b9'
p5756
aS'00'
p5757
aS'00'
p5758
aS'56'
p5759
aS'25'
p5760
aS'2b'
p5761
aS'2b'
p5762
asg97
(lp5763
g48
aS'59'
p5764
aS'06'
p5765
aS'1a'
p5766
aS'8f'
p5767
aS'44'
p5768
aS'00'
p5769
aS'00'
p5770
aS'00'
p5771
aS'00'
p5772
aS'00'
p5773
aS'50'
p5774
aS'65'
p5775
aS'00'
p5776
aS'00'
p5777
aS'00'
p5778
aS'00'
p5779
aS'00'
p5780
aS'00'
p5781
aS'00'
p5782
aS'80'
p5783
aS'b9'
p5784
aS'00'
p5785
aS'00'
p5786
asg122
(lp5787
g48
aS'55'
p5788
aS'06'
p5789
aS'19'
p5790
aS'8f'
p5791
aS'46'
p5792
aS'81'
p5793
aS'10'
p5794
aS'22'
p5795
aS'00'
p5796
aS'00'
p5797
aS'00'
p5798
aS'00'
p5799
aS'00'
p5800
aS'00'
p5801
aS'00'
p5802
aS'00'
p5803
aS'00'
p5804
aS'00'
p5805
aS'00'
p5806
aS'b9'
p5807
aS'00'
p5808
aS'00'
p5809
aS'2b'
p5810
asg147
S'Germany'
p5811
sg149
I0
sg150
I01
sg151
I1
sba(ipyCatcherModel
BaseStationInformation
p5812
(dp5813
g6
(lp5814
g48
aS'49'
p5815
aS'06'
p5816
aS'03'
p5817
aS'cf'
p5818
aS'f8'
p5819
aS'80'
p5820
aS'00'
p5821
aS'00'
p5822
aS'00'
p5823
aS'00'
p5824
aS'00'
p5825
aS'00'
p5826
aS'00'
p5827
aS'00'
p5828
aS'00'
p5829
aS'00'
p5830
aS'00'
p5831
aS'00'
p5832
aS'00'
p5833
aS'2b'
p5834
aS'2b'
p5835
aS'2b'
p5836
aS'2b'
p5837
asg8
(dp5838
g10
g11
ssg12
g13
sg14
(dp5839
g16
g17
sg18
g17
sg19
g17
sg20
g17
sg21
g17
sg22
g17
sg23
g17
sg24
g17
ssg25
I55625
sg26
(lp5840
I661
aI669
aI672
aI696
aI705
aI709
aI1009
asg28
I-98
sg29
S'O2'
p5841
sg31
I0
sg32
g33
sg34
g17
sg35
I701
sg36
g37
sg38
S'17:58:36'
p5842
sg40
I50945
sg41
g11
sg42
S'7,5'
p5843
sg44
(lp5844
sg46
(lp5845
g48
aS'41'
p5846
aS'06'
p5847
aS'1c'
p5848
aS'62'
p5849
aS'f2'
p5850
aS'70'
p5851
aS'c7'
p5852
aS'01'
p5853
aS'60'
p5854
aS'45'
p5855
aS'b9'
p5856
aS'00'
p5857
aS'00'
p5858
aS'64'
p5859
aS'51'
p5860
aS'a2'
p5861
aS'bd'
p5862
aS'51'
p5863
aS'2b'
p5864
aS'2b'
p5865
aS'2b'
p5866
aS'2b'
p5867
aS'2b'
p5868
asg72
(lp5869
g48
aS'49'
p5870
aS'06'
p5871
aS'1b'
p5872
aS'd9'
p5873
aS'49'
p5874
aS'62'
p5875
aS'f2'
p5876
aS'70'
p5877
aS'c7'
p5878
aS'01'
p5879
aS'd0'
p5880
aS'03'
p5881
aS'28'
p5882
aS'57'
p5883
aS'60'
p5884
aS'45'
p5885
aS'b9'
p5886
aS'00'
p5887
aS'00'
p5888
aS'56'
p5889
aS'25'
p5890
aS'2b'
p5891
aS'2b'
p5892
asg97
(lp5893
g48
aS'59'
p5894
aS'06'
p5895
aS'1a'
p5896
aS'8f'
p5897
aS'4a'
p5898
aS'80'
p5899
aS'90'
p5900
aS'00'
p5901
aS'00'
p5902
aS'10'
p5903
aS'08'
p5904
aS'80'
p5905
aS'00'
p5906
aS'00'
p5907
aS'00'
p5908
aS'00'
p5909
aS'00'
p5910
aS'00'
p5911
aS'00'
p5912
aS'80'
p5913
aS'b9'
p5914
aS'00'
p5915
aS'00'
p5916
asg122
(lp5917
g48
aS'55'
p5918
aS'06'
p5919
aS'19'
p5920
aS'8f'
p5921
aS'40'
p5922
aS'08'
p5923
aS'40'
p5924
aS'00'
p5925
aS'00'
p5926
aS'00'
p5927
aS'00'
p5928
aS'00'
p5929
aS'04'
p5930
aS'00'
p5931
aS'04'
p5932
aS'00'
p5933
aS'00'
p5934
aS'00'
p5935
aS'00'
p5936
aS'b9'
p5937
aS'00'
p5938
aS'00'
p5939
aS'2b'
p5940
asg147
S'Germany'
p5941
sg149
I0
sg150
I01
sg151
I1
sba(ipyCatcherModel
BaseStationInformation
p5942
(dp5943
g6
(lp5944
g48
aS'01'
p5945
aS'06'
p5946
aS'03'
p5947
aS'cf'
p5948
aS'85'
p5949
aS'00'
p5950
aS'10'
p5951
aS'80'
p5952
aS'00'
p5953
aS'8a'
p5954
aS'a8'
p5955
aS'00'
p5956
aS'00'
p5957
aS'00'
p5958
aS'00'
p5959
aS'00'
p5960
aS'00'
p5961
aS'00'
p5962
aS'00'
p5963
aS'2b'
p5964
aS'2b'
p5965
aS'2b'
p5966
aS'2b'
p5967
asg8
(dp5968
g10
g11
ssg12
g13
sg14
(dp5969
g16
g17
sg18
g17
sg19
g17
sg20
g17
sg21
g17
sg22
g17
sg23
g17
sg24
g17
ssg25
I50988
sg26
(lp5970
I778
aI789
aI794
aI810
aI814
aI816
aI818
aI820
aI822
aI981
aI983
aI986
aI988
asg28
I-97
sg29
S'E-Plus'
p5971
sg31
I0
sg32
g33
sg34
g17
sg35
I979
sg36
g37
sg38
S'17:58:44'
p5972
sg40
I588
sg41
g11
sg42
S'3,3'
p5973
sg44
(lp5974
g48
aS'55'
p5975
aS'06'
p5976
aS'02'
p5977
aS'af'
p5978
aS'ea'
p5979
aS'a5'
p5980
aS'00'
p5981
aS'00'
p5982
aS'00'
p5983
aS'00'
p5984
aS'00'
p5985
aS'00'
p5986
aS'00'
p5987
aS'00'
p5988
aS'00'
p5989
aS'00'
p5990
aS'00'
p5991
aS'00'
p5992
aS'00'
p5993
aS'a4'
p5994
aS'00'
p5995
aS'00'
p5996
aS'2b'
p5997
asg46
(lp5998
g48
aS'31'
p5999
aS'06'
p6000
aS'1c'
p6001
aS'62'
p6002
aS'f2'
p6003
aS'30'
p6004
aS'02'
p6005
aS'4c'
p6006
aS'65'
p6007
aS'43'
p6008
aS'a4'
p6009
aS'00'
p6010
aS'00'
p6011
aS'89'
p6012
aS'1f'
p6013
aS'53'
p6014
aS'2b'
p6015
aS'2b'
p6016
aS'2b'
p6017
aS'2b'
p6018
aS'2b'
p6019
aS'2b'
p6020
aS'2b'
p6021
asg72
(lp6022
g48
aS'49'
p6023
aS'06'
p6024
aS'1b'
p6025
aS'c7'
p6026
aS'2c'
p6027
aS'62'
p6028
aS'f2'
p6029
aS'30'
p6030
aS'02'
p6031
aS'4c'
p6032
aS'c9'
p6033
aS'05'
p6034
aS'78'
p6035
aS'49'
p6036
aS'65'
p6037
aS'43'
p6038
aS'a4'
p6039
aS'00'
p6040
aS'00'
p6041
aS'89'
p6042
aS'1f'
p6043
aS'42'
p6044
aS'1b'
p6045
asg97
(lp6046
g48
aS'59'
p6047
aS'06'
p6048
aS'1a'
p6049
aS'20'
p6050
aS'00'
p6051
aS'00'
p6052
aS'00'
p6053
aS'00'
p6054
aS'00'
p6055
aS'00'
p6056
aS'00'
p6057
aS'00'
p6058
aS'00'
p6059
aS'00'
p6060
aS'00'
p6061
aS'00'
p6062
aS'00'
p6063
aS'00'
p6064
aS'00'
p6065
aS'08'
p6066
aS'a4'
p6067
aS'00'
p6068
aS'00'
p6069
asg122
(lp6070
g48
aS'55'
p6071
aS'06'
p6072
aS'19'
p6073
aS'8f'
p6074
aS'e9'
p6075
aS'80'
p6076
aS'00'
p6077
aS'00'
p6078
aS'00'
p6079
aS'00'
p6080
aS'00'
p6081
aS'00'
p6082
aS'00'
p6083
aS'00'
p6084
aS'00'
p6085
aS'00'
p6086
aS'00'
p6087
aS'00'
p6088
aS'00'
p6089
aS'a4'
p6090
aS'00'
p6091
aS'00'
p6092
aS'2b'
p6093
asg147
S'Germany'
p6094
sg149
I0
sg150
I01
sg151
I1
sba(ipyCatcherModel
BaseStationInformation
p6095
(dp6096
g6
(lp6097
g48
aS'01'
p6098
aS'06'
p6099
aS'03'
p6100
aS'cf'
p6101
aS'8a'
p6102
aS'84'
p6103
aS'00'
p6104
aS'14'
p6105
aS'55'
p6106
aS'08'
p6107
aS'00'
p6108
aS'00'
p6109
aS'00'
p6110
aS'00'
p6111
aS'00'
p6112
aS'00'
p6113
aS'00'
p6114
aS'00'
p6115
aS'00'
p6116
aS'2b'
p6117
aS'2b'
p6118
aS'2b'
p6119
aS'2b'
p6120
asg8
(dp6121
g10
g11
ssg12
g13
sg14
(dp6122
g16
g17
sg18
g17
sg19
g17
sg20
g17
sg21
g17
sg22
g17
sg23
g17
sg24
g17
ssg25
I50978
sg26
(lp6123
I789
aI794
aI808
aI810
aI814
aI816
aI818
aI820
aI825
aI979
aI983
aI988
aI989
aI995
aI996
asg28
I-97
sg29
S'E-Plus'
p6124
sg31
I0
sg32
g33
sg34
g17
sg35
I981
sg36
g37
sg38
S'17:58:50'
p6125
sg40
I588
sg41
g11
sg42
S'3,5'
p6126
sg44
(lp6127
g48
aS'55'
p6128
aS'06'
p6129
aS'02'
p6130
aS'af'
p6131
aS'e9'
p6132
aS'88'
p6133
aS'60'
p6134
aS'c0'
p6135
aS'00'
p6136
aS'00'
p6137
aS'00'
p6138
aS'00'
p6139
aS'00'
p6140
aS'00'
p6141
aS'00'
p6142
aS'00'
p6143
aS'00'
p6144
aS'00'
p6145
aS'00'
p6146
aS'a4'
p6147
aS'00'
p6148
aS'00'
p6149
aS'2b'
p6150
asg46
(lp6151
g48
aS'31'
p6152
aS'06'
p6153
aS'1c'
p6154
aS'62'
p6155
aS'f2'
p6156
aS'30'
p6157
aS'02'
p6158
aS'4c'
p6159
aS'65'
p6160
aS'43'
p6161
aS'a4'
p6162
aS'00'
p6163
aS'00'
p6164
aS'89'
p6165
aS'1f'
p6166
aS'53'
p6167
aS'2b'
p6168
aS'2b'
p6169
aS'2b'
p6170
aS'2b'
p6171
aS'2b'
p6172
aS'2b'
p6173
aS'2b'
p6174
asg72
(lp6175
g48
aS'49'
p6176
aS'06'
p6177
aS'1b'
p6178
aS'c7'
p6179
aS'22'
p6180
aS'62'
p6181
aS'f2'
p6182
aS'30'
p6183
aS'02'
p6184
aS'4c'
p6185
aS'c9'
p6186
aS'05'
p6187
aS'78'
p6188
aS'49'
p6189
aS'65'
p6190
aS'43'
p6191
aS'a4'
p6192
aS'00'
p6193
aS'00'
p6194
aS'89'
p6195
aS'1f'
p6196
aS'42'
p6197
aS'1b'
p6198
asg97
(lp6199
g48
aS'59'
p6200
aS'06'
p6201
aS'1a'
p6202
aS'20'
p6203
aS'00'
p6204
aS'00'
p6205
aS'00'
p6206
aS'00'
p6207
aS'00'
p6208
aS'00'
p6209
aS'00'
p6210
aS'00'
p6211
aS'00'
p6212
aS'00'
p6213
aS'00'
p6214
aS'00'
p6215
aS'00'
p6216
aS'00'
p6217
aS'00'
p6218
aS'08'
p6219
aS'a4'
p6220
aS'00'
p6221
aS'00'
p6222
asg122
(lp6223
g48
aS'55'
p6224
aS'06'
p6225
aS'19'
p6226
aS'8f'
p6227
aS'ea'
p6228
aS'80'
p6229
aS'00'
p6230
aS'00'
p6231
aS'00'
p6232
aS'00'
p6233
aS'00'
p6234
aS'00'
p6235
aS'00'
p6236
aS'00'
p6237
aS'00'
p6238
aS'00'
p6239
aS'00'
p6240
aS'00'
p6241
aS'00'
p6242
aS'a4'
p6243
aS'00'
p6244
aS'00'
p6245
aS'2b'
p6246
asg147
S'Germany'
p6247
sg149
I0
sg150
I01
sg151
I1
sba(ipyCatcherModel
BaseStationInformation
p6248
(dp6249
g6
(lp6250
g48
aS'01'
p6251
aS'06'
p6252
aS'03'
p6253
aS'df'
p6254
aS'eb'
p6255
aS'00'
p6256
aS'02'
p6257
aS'00'
p6258
aS'00'
p6259
aS'00'
p6260
aS'00'
p6261
aS'00'
p6262
aS'00'
p6263
aS'00'
p6264
aS'00'
p6265
aS'00'
p6266
aS'00'
p6267
aS'00'
p6268
aS'00'
p6269
aS'2b'
p6270
aS'2b'
p6271
aS'2b'
p6272
aS'2b'
p6273
asg8
(dp6274
g10
g11
ssg12
g13
sg14
(dp6275
g16
g17
sg18
g17
sg19
g17
sg20
g17
sg21
g17
sg22
g17
sg23
g17
sg24
g17
ssg25
I31228
sg26
(lp6276
I795
aI805
aI806
aI808
aI819
aI826
aI829
aI982
aI996
asg28
I-100
sg29
S'E-Plus'
p6277
sg31
I0
sg32
g33
sg34
g17
sg35
I813
sg36
g37
sg38
S'17:59:02'
p6278
sg40
I588
sg41
g11
sg42
S'3,2'
p6279
sg44
(lp6280
sg46
(lp6281
g48
aS'31'
p6282
aS'06'
p6283
aS'1c'
p6284
aS'62'
p6285
aS'f2'
p6286
aS'30'
p6287
aS'02'
p6288
aS'4c'
p6289
aS'60'
p6290
aS'03'
p6291
aS'94'
p6292
aS'00'
p6293
aS'00'
p6294
aS'01'
p6295
aS'2b'
p6296
aS'2b'
p6297
aS'2b'
p6298
aS'2b'
p6299
aS'2b'
p6300
aS'2b'
p6301
aS'2b'
p6302
aS'2b'
p6303
aS'2b'
p6304
asg72
(lp6305
g48
aS'49'
p6306
aS'06'
p6307
aS'1b'
p6308
aS'79'
p6309
aS'fc'
p6310
aS'62'
p6311
aS'f2'
p6312
aS'30'
p6313
aS'02'
p6314
aS'4c'
p6315
aS'c8'
p6316
aS'05'
p6317
aS'78'
p6318
aS'46'
p6319
aS'60'
p6320
aS'03'
p6321
aS'94'
p6322
aS'00'
p6323
aS'00'
p6324
aS'1c'
p6325
aS'13'
p6326
aS'2b'
p6327
aS'2b'
p6328
asg97
(lp6329
g48
aS'59'
p6330
aS'06'
p6331
aS'1a'
p6332
aS'9f'
p6333
aS'8d'
p6334
aS'80'
p6335
aS'34'
p6336
aS'20'
p6337
aS'81'
p6338
aS'20'
p6339
aS'00'
p6340
aS'00'
p6341
aS'00'
p6342
aS'00'
p6343
aS'00'
p6344
aS'00'
p6345
aS'00'
p6346
aS'00'
p6347
aS'00'
p6348
aS'08'
p6349
aS'94'
p6350
aS'00'
p6351
aS'00'
p6352
asg122
(lp6353
g48
aS'55'
p6354
aS'06'
p6355
aS'19'
p6356
aS'8f'
p6357
aS'8a'
p6358
aS'84'
p6359
aS'00'
p6360
aS'00'
p6361
aS'80'
p6362
aS'00'
p6363
aS'00'
p6364
aS'20'
p6365
aS'40'
p6366
aS'04'
p6367
aS'80'
p6368
aS'00'
p6369
aS'00'
p6370
aS'00'
p6371
aS'00'
p6372
aS'94'
p6373
aS'00'
p6374
aS'00'
p6375
aS'2b'
p6376
asg147
S'Germany'
p6377
sg149
I0
sg150
I01
sg151
I1
sba(ipyCatcherModel
BaseStationInformation
p6378
(dp6379
g6
(lp6380
g48
aS'01'
p6381
aS'06'
p6382
aS'03'
p6383
aS'df'
p6384
aS'eb'
p6385
aS'0c'
p6386
aS'20'
p6387
aS'00'
p6388
aS'00'
p6389
aS'00'
p6390
aS'00'
p6391
aS'00'
p6392
aS'00'
p6393
aS'00'
p6394
aS'00'
p6395
aS'00'
p6396
aS'00'
p6397
aS'00'
p6398
aS'00'
p6399
aS'2b'
p6400
aS'2b'
p6401
aS'2b'
p6402
aS'2b'
p6403
asg8
(dp6404
g10
g11
ssg12
g13
sg14
(dp6405
g16
g17
sg18
g17
sg19
g17
sg20
g17
sg21
g17
sg22
g17
sg23
g17
sg24
g17
ssg25
I32988
sg26
(lp6406
I777
aI797
aI805
aI808
aI812
aI815
aI823
aI826
aI828
aI982
aI986
aI987
aI992
asg28
I-99
sg29
S'E-Plus'
p6407
sg31
I0
sg32
g33
sg34
g17
sg35
I817
sg36
g37
sg38
S'17:59:05'
p6408
sg40
I588
sg41
g11
sg42
S'3,6'
p6409
sg44
(lp6410
sg46
(lp6411
g48
aS'31'
p6412
aS'06'
p6413
aS'1c'
p6414
aS'62'
p6415
aS'f2'
p6416
aS'30'
p6417
aS'02'
p6418
aS'4c'
p6419
aS'60'
p6420
aS'03'
p6421
aS'94'
p6422
aS'00'
p6423
aS'00'
p6424
aS'01'
p6425
aS'2b'
p6426
aS'2b'
p6427
aS'2b'
p6428
aS'2b'
p6429
aS'2b'
p6430
aS'2b'
p6431
aS'2b'
p6432
aS'2b'
p6433
aS'2b'
p6434
asg72
(lp6435
g48
aS'49'
p6436
aS'06'
p6437
aS'1b'
p6438
aS'80'
p6439
aS'dc'
p6440
aS'62'
p6441
aS'f2'
p6442
aS'30'
p6443
aS'02'
p6444
aS'4c'
p6445
aS'c8'
p6446
aS'05'
p6447
aS'78'
p6448
aS'46'
p6449
aS'60'
p6450
aS'03'
p6451
aS'94'
p6452
aS'00'
p6453
aS'00'
p6454
aS'1c'
p6455
aS'13'
p6456
aS'2b'
p6457
aS'2b'
p6458
asg97
(lp6459
g48
aS'59'
p6460
aS'06'
p6461
aS'1a'
p6462
aS'9f'
p6463
aS'84'
p6464
aS'80'
p6465
aS'00'
p6466
aS'08'
p6467
aS'09'
p6468
aS'12'
p6469
aS'82'
p6470
aS'50'
p6471
aS'00'
p6472
aS'00'
p6473
aS'00'
p6474
aS'00'
p6475
aS'00'
p6476
aS'00'
p6477
aS'00'
p6478
aS'08'
p6479
aS'94'
p6480
aS'00'
p6481
aS'00'
p6482
asg122
(lp6483
g48
aS'55'
p6484
aS'06'
p6485
aS'19'
p6486
aS'8f'
p6487
aS'87'
p6488
aS'00'
p6489
aS'10'
p6490
aS'00'
p6491
aS'00'
p6492
aS'10'
p6493
aS'00'
p6494
aS'0a'
p6495
aS'80'
p6496
aS'00'
p6497
aS'80'
p6498
aS'00'
p6499
aS'00'
p6500
aS'00'
p6501
aS'00'
p6502
aS'94'
p6503
aS'00'
p6504
aS'00'
p6505
aS'2b'
p6506
asg147
S'Germany'
p6507
sg149
I0
sg150
I01
sg151
I1
sba(ipyCatcherModel
BaseStationInformation
p6508
(dp6509
g6
(lp6510
sg8
(dp6511
g10
g11
ssg12
g13
sg14
(dp6512
g16
g17
sg18
g17
sg19
g17
sg20
g17
sg21
g17
sg22
g17
sg23
g17
sg24
g17
ssg25
I7068
sg26
(lp6513
I777
aI791
aI805
aI821
aI827
asg28
I-93
sg29
S'E-Plus'
p6514
sg31
I0
sg32
g33
sg34
g17
sg35
I863
sg36
g37
sg38
S'17:59:12'
p6515
sg40
I588
sg41
g11
sg42
S'3,6'
p6516
sg44
(lp6517
sg46
(lp6518
g48
aS'31'
p6519
aS'06'
p6520
aS'1c'
p6521
aS'62'
p6522
aS'f2'
p6523
aS'30'
p6524
aS'02'
p6525
aS'4c'
p6526
aS'60'
p6527
aS'03'
p6528
aS'94'
p6529
aS'00'
p6530
aS'00'
p6531
aS'01'
p6532
aS'2b'
p6533
aS'2b'
p6534
aS'2b'
p6535
aS'2b'
p6536
aS'2b'
p6537
aS'2b'
p6538
aS'2b'
p6539
aS'2b'
p6540
aS'2b'
p6541
asg72
(lp6542
g48
aS'49'
p6543
aS'06'
p6544
aS'1b'
p6545
aS'1b'
p6546
aS'9c'
p6547
aS'62'
p6548
aS'f2'
p6549
aS'30'
p6550
aS'02'
p6551
aS'4c'
p6552
aS'c8'
p6553
aS'05'
p6554
aS'78'
p6555
aS'46'
p6556
aS'60'
p6557
aS'03'
p6558
aS'94'
p6559
aS'00'
p6560
aS'00'
p6561
aS'3c'
p6562
aS'13'
p6563
aS'2b'
p6564
aS'2b'
p6565
asg97
(lp6566
g48
aS'59'
p6567
aS'06'
p6568
aS'1a'
p6569
aS'9f'
p6570
aS'84'
p6571
aS'80'
p6572
aS'02'
p6573
aS'00'
p6574
aS'08'
p6575
aS'00'
p6576
aS'08'
p6577
aS'20'
p6578
aS'00'
p6579
aS'00'
p6580
aS'00'
p6581
aS'02'
p6582
aS'00'
p6583
aS'00'
p6584
aS'00'
p6585
aS'08'
p6586
aS'94'
p6587
aS'00'
p6588
aS'00'
p6589
asg122
(lp6590
g48
aS'55'
p6591
aS'06'
p6592
aS'19'
p6593
aS'8f'
p6594
aS'85'
p6595
aS'88'
p6596
aS'41'
p6597
aS'80'
p6598
aS'40'
p6599
aS'00'
p6600
aS'00'
p6601
aS'00'
p6602
aS'00'
p6603
aS'00'
p6604
aS'00'
p6605
aS'08'
p6606
aS'00'
p6607
aS'00'
p6608
aS'00'
p6609
aS'94'
p6610
aS'00'
p6611
aS'00'
p6612
aS'2b'
p6613
asg147
S'Germany'
p6614
sg149
I0
sg150
I01
sg151
I1
sba(ipyCatcherModel
BaseStationInformation
p6615
(dp6616
g6
(lp6617
sg8
(dp6618
g10
g11
ssg12
g13
sg14
(dp6619
g16
g17
sg18
g17
sg19
g17
sg20
g17
sg21
g17
sg22
g17
sg23
g17
sg24
g17
ssg25
I19774
sg26
(lp6620
I3
aI7
aI8
aI52
aI57
aI58
aI70
aI74
aI78
aI104
aI105
aI117
aI118
asg28
I-56
sg29
S'Vodafone'
p6621
sg31
I0
sg32
g33
sg34
g17
sg35
I64
sg36
g37
sg38
S'17:59:28'
p6622
sg40
I793
sg41
g11
sg42
S'3,3'
p6623
sg44
(lp6624
sg46
(lp6625
g48
aS'31'
p6626
aS'06'
p6627
aS'1c'
p6628
aS'62'
p6629
aS'f2'
p6630
aS'20'
p6631
aS'03'
p6632
aS'19'
p6633
aS'65'
p6634
aS'04'
p6635
aS'b9'
p6636
aS'00'
p6637
aS'00'
p6638
aS'80'
p6639
aS'1f'
p6640
aS'4b'
p6641
aS'2b'
p6642
aS'2b'
p6643
aS'2b'
p6644
aS'2b'
p6645
aS'2b'
p6646
aS'2b'
p6647
aS'2b'
p6648
asg72
(lp6649
g48
aS'49'
p6650
aS'06'
p6651
aS'1b'
p6652
aS'4d'
p6653
aS'3e'
p6654
aS'62'
p6655
aS'f2'
p6656
aS'20'
p6657
aS'03'
p6658
aS'19'
p6659
aS'c8'
p6660
aS'04'
p6661
aS'0a'
p6662
aS'15'
p6663
aS'65'
p6664
aS'04'
p6665
aS'b9'
p6666
aS'00'
p6667
aS'00'
p6668
aS'80'
p6669
aS'1f'
p6670
aS'01'
p6671
aS'1b'
p6672
asg97
(lp6673
g48
aS'59'
p6674
aS'06'
p6675
aS'1a'
p6676
aS'10'
p6677
aS'30'
p6678
aS'01'
p6679
aS'80'
p6680
aS'00'
p6681
aS'00'
p6682
aS'22'
p6683
aS'20'
p6684
aS'03'
p6685
aS'08'
p6686
aS'00'
p6687
aS'00'
p6688
aS'00'
p6689
aS'00'
p6690
aS'00'
p6691
aS'c4'
p6692
aS'88'
p6693
aS'b9'
p6694
aS'00'
p6695
aS'00'
p6696
asg122
(lp6697
g48
aS'55'
p6698
aS'06'
p6699
aS'19'
p6700
aS'00'
p6701
aS'00'
p6702
aS'00'
p6703
aS'00'
p6704
aS'00'
p6705
aS'00'
p6706
aS'01'
p6707
aS'54'
p6708
aS'00'
p6709
aS'00'
p6710
aS'00'
p6711
aS'00'
p6712
aS'00'
p6713
aS'00'
p6714
aS'00'
p6715
aS'00'
p6716
aS'b9'
p6717
aS'00'
p6718
aS'00'
p6719
aS'83'
p6720
asg147
S'Germany'
p6721
sg149
I0
sg150
I01
sg151
I1
sbasb.